; Listing generated by Microsoft (R) Optimizing Compiler Version 19.11.25507.1 

include listing.inc

INCLUDELIB LIBCMT
INCLUDELIB OLDNAMES

CONST	SEGMENT
aifc_floatstring DB 08H
	DB	046H
	DB	06cH
	DB	06fH
	DB	061H
	DB	074H
	DB	020H
	DB	033H
	DB	032H
	DB	00H
	ORG $+6
aifc_notcompressed DB 0eH
	DB	06eH
	DB	06fH
	DB	074H
	DB	020H
	DB	063H
	DB	06fH
	DB	06dH
	DB	070H
	DB	072H
	DB	065H
	DB	073H
	DB	073H
	DB	065H
	DB	064H
	DB	00H
KSDATAFORMAT_SUBTYPE_PCM DD 01H
	DW	00H
	DW	010H
	DB	080H
	DB	00H
	DB	00H
	DB	0aaH
	DB	00H
	DB	038H
	DB	09bH
	DB	071H
KSDATAFORMAT_SUBTYPE_IEEE_FLOAT DD 03H
	DW	00H
	DW	010H
	DB	080H
	DB	00H
	DB	00H
	DB	0aaH
	DB	00H
	DB	038H
	DB	09bH
	DB	071H
SUBTYPE_AMBISONIC_B_FORMAT_PCM DD 01H
	DW	0721H
	DW	011d3H
	DB	086H
	DB	044H
	DB	0c8H
	DB	0c1H
	DB	0caH
	DB	00H
	DB	00H
	DB	00H
SUBTYPE_AMBISONIC_B_FORMAT_IEEE_FLOAT DD 03H
	DW	0721H
	DW	011d3H
	DB	086H
	DB	044H
	DB	0c8H
	DB	0c1H
	DB	0caH
	DB	00H
	DB	00H
	DB	00H
CONST	ENDS
_DATA	SEGMENT
$SG10269 DB	'wb+', 00H
$SG10281 DB	'wb', 00H
	ORG $+1
$SG11160 DB	'rb', 00H
	ORG $+1
$SG11460 DB	'.wav', 00H
	ORG $+3
$SG11464 DB	'.aif', 00H
	ORG $+3
$SG11465 DB	'.aiff', 00H
	ORG $+2
$SG11469 DB	'.afc', 00H
	ORG $+3
$SG11470 DB	'.aifc', 00H
	ORG $+2
$SG11473 DB	'.wxyz', 00H
	ORG $+2
$SG11476 DB	'.amb', 00H
	ORG $+7
inv_randmax DQ	03f00002000400080r		; 3.05185e-05
_DATA	ENDS
PUBLIC	stricmp
PUBLIC	strnicmp
PUBLIC	psf_init
PUBLIC	psf_finish
PUBLIC	psf_sndCreate
PUBLIC	psf_sndOpen
PUBLIC	psf_sndClose
PUBLIC	psf_sndSize
PUBLIC	psf_sndWriteFloatFrames
PUBLIC	psf_sndWriteDoubleFrames
PUBLIC	psf_sndWriteShortFrames
PUBLIC	psf_sndTell
PUBLIC	psf_sndSeek
PUBLIC	psf_sndReadFloatFrames
PUBLIC	psf_sndReadDoubleFrames
PUBLIC	psf_sndReadPeaks
PUBLIC	psf_getFormatExt
PUBLIC	psf_sndSetDither
PUBLIC	psf_sndGetDither
PUBLIC	psf_speakermask
PUBLIC	get_speakerlayout
PUBLIC	psf_round
PUBLIC	__real@3f800000
PUBLIC	__real@3fe0000000000000
PUBLIC	__real@3ff0000000000000
PUBLIC	__real@4000000000000000
PUBLIC	__real@40dfff8000000000
PUBLIC	__real@40e0000000000000
PUBLIC	__real@41e0000000000000
PUBLIC	__real@bf800000
EXTRN	fclose:PROC
EXTRN	fflush:PROC
EXTRN	fgetpos:PROC
EXTRN	fopen:PROC
EXTRN	fread:PROC
EXTRN	fsetpos:PROC
EXTRN	fseek:PROC
EXTRN	fwrite:PROC
EXTRN	rewind:PROC
EXTRN	free:PROC
EXTRN	malloc:PROC
EXTRN	rand:PROC
EXTRN	memcmp:PROC
EXTRN	memcpy:PROC
EXTRN	memset:PROC
EXTRN	strrchr:PROC
EXTRN	strcpy:PROC
EXTRN	strlen:PROC
EXTRN	fabs:PROC
EXTRN	_time64:PROC
EXTRN	ieee_80_to_double:PROC
EXTRN	double_to_ieee_80:PROC
EXTRN	islower:PROC
EXTRN	toupper:PROC
EXTRN	__GSHandlerCheck:PROC
EXTRN	__security_check_cookie:PROC
EXTRN	__ImageBase:BYTE
EXTRN	__security_cookie:QWORD
EXTRN	_fltused:DWORD
_BSS	SEGMENT
psf_files DQ	040H DUP (?)
_BSS	ENDS
pdata	SEGMENT
$pdata$stricmp DD imagerel $LN13
	DD	imagerel $LN13+288
	DD	imagerel $unwind$stricmp
$pdata$strnicmp DD imagerel $LN14
	DD	imagerel $LN14+330
	DD	imagerel $unwind$strnicmp
$pdata$time DD	imagerel time
	DD	imagerel time+24
	DD	imagerel $unwind$time
$pdata$psf_init DD imagerel $LN6
	DD	imagerel $LN6+55
	DD	imagerel $unwind$psf_init
$pdata$psf_finish DD imagerel $LN8
	DD	imagerel $LN8+148
	DD	imagerel $unwind$psf_finish
$pdata$psf_sndCreate DD imagerel $LN29
	DD	imagerel $LN29+688
	DD	imagerel $unwind$psf_sndCreate
$pdata$psf_sndOpen DD imagerel $LN20
	DD	imagerel $LN20+622
	DD	imagerel $unwind$psf_sndOpen
$pdata$psf_sndClose DD imagerel $LN15
	DD	imagerel $LN15+246
	DD	imagerel $unwind$psf_sndClose
$pdata$psf_sndSize DD imagerel $LN6
	DD	imagerel $LN6+75
	DD	imagerel $unwind$psf_sndSize
$pdata$psf_sndWriteFloatFrames DD imagerel $LN143
	DD	imagerel $LN143+4558
	DD	imagerel $unwind$psf_sndWriteFloatFrames
$pdata$psf_sndWriteDoubleFrames DD imagerel $LN143
	DD	imagerel $LN143+4537
	DD	imagerel $unwind$psf_sndWriteDoubleFrames
$pdata$psf_sndWriteShortFrames DD imagerel $LN28
	DD	imagerel $LN28+936
	DD	imagerel $unwind$psf_sndWriteShortFrames
$pdata$psf_sndTell DD imagerel $LN7
	DD	imagerel $LN7+165
	DD	imagerel $unwind$psf_sndTell
$pdata$psf_sndSeek DD imagerel $LN19
	DD	imagerel $LN19+474
	DD	imagerel $unwind$psf_sndSeek
$pdata$psf_sndReadFloatFrames DD imagerel $LN71
	DD	imagerel $LN71+1895
	DD	imagerel $unwind$psf_sndReadFloatFrames
$pdata$psf_sndReadDoubleFrames DD imagerel $LN74
	DD	imagerel $LN74+1946
	DD	imagerel $unwind$psf_sndReadDoubleFrames
$pdata$psf_sndReadPeaks DD imagerel $LN12
	DD	imagerel $LN12+269
	DD	imagerel $unwind$psf_sndReadPeaks
$pdata$psf_getFormatExt DD imagerel $LN18
	DD	imagerel $LN18+280
	DD	imagerel $unwind$psf_getFormatExt
$pdata$psf_sndSetDither DD imagerel $LN8
	DD	imagerel $LN8+119
	DD	imagerel $unwind$psf_sndSetDither
$pdata$psf_sndGetDither DD imagerel $LN6
	DD	imagerel $LN6+78
	DD	imagerel $unwind$psf_sndGetDither
$pdata$psf_speakermask DD imagerel $LN6
	DD	imagerel $LN6+75
	DD	imagerel $unwind$psf_speakermask
$pdata$get_speakerlayout DD imagerel $LN22
	DD	imagerel $LN22+231
	DD	imagerel $unwind$get_speakerlayout
$pdata$trirand DD imagerel trirand
	DD	imagerel trirand+79
	DD	imagerel $unwind$trirand
$pdata$compare_guids DD imagerel compare_guids
	DD	imagerel compare_guids+86
	DD	imagerel $unwind$compare_guids
$pdata$psf_release_file DD imagerel psf_release_file
	DD	imagerel psf_release_file+166
	DD	imagerel $unwind$psf_release_file
$pdata$byte_order DD imagerel byte_order
	DD	imagerel byte_order+33
	DD	imagerel $unwind$byte_order
$pdata$fmtSwapBytes DD imagerel fmtSwapBytes
	DD	imagerel fmtSwapBytes+348
	DD	imagerel $unwind$fmtSwapBytes
$pdata$fmtExSwapBytes DD imagerel fmtExSwapBytes
	DD	imagerel fmtExSwapBytes+701
	DD	imagerel $unwind$fmtExSwapBytes
$pdata$check_guid DD imagerel check_guid
	DD	imagerel check_guid+551
	DD	imagerel $unwind$check_guid
$pdata$psf_bitsize DD imagerel psf_bitsize
	DD	imagerel psf_bitsize+86
	DD	imagerel $unwind$psf_bitsize
$pdata$psf_wordsize DD imagerel psf_wordsize
	DD	imagerel psf_wordsize+86
	DD	imagerel $unwind$psf_wordsize
$pdata$psf_round DD imagerel $LN4
	DD	imagerel $LN4+67
	DD	imagerel $unwind$psf_round
$pdata$psf_newFile DD imagerel psf_newFile
	DD	imagerel psf_newFile+1408
	DD	imagerel $unwind$psf_newFile
$pdata$wavUpdate DD imagerel wavUpdate
	DD	imagerel wavUpdate+908
	DD	imagerel $unwind$wavUpdate
$pdata$aiffUpdate DD imagerel aiffUpdate
	DD	imagerel aiffUpdate+1286
	DD	imagerel $unwind$aiffUpdate
$pdata$wavDoWrite DD imagerel wavDoWrite
	DD	imagerel wavDoWrite+141
	DD	imagerel $unwind$wavDoWrite
$pdata$wavDoRead DD imagerel wavDoRead
	DD	imagerel wavDoRead+141
	DD	imagerel $unwind$wavDoRead
$pdata$wavWriteHeader DD imagerel wavWriteHeader
	DD	imagerel wavWriteHeader+1471
	DD	imagerel $unwind$wavWriteHeader
$pdata$waveExWriteHeader DD imagerel waveExWriteHeader
	DD	imagerel waveExWriteHeader+1668
	DD	imagerel $unwind$waveExWriteHeader
$pdata$aiffWriteHeader DD imagerel aiffWriteHeader
	DD	imagerel aiffWriteHeader+1819
	DD	imagerel $unwind$aiffWriteHeader
$pdata$aifcWriteHeader DD imagerel aifcWriteHeader
	DD	imagerel aifcWriteHeader+2369
	DD	imagerel $unwind$aifcWriteHeader
$pdata$wavReadHeader DD imagerel wavReadHeader
	DD	imagerel wavReadHeader+3275
	DD	imagerel $unwind$wavReadHeader
$pdata$aiffReadHeader DD imagerel aiffReadHeader
	DD	imagerel aiffReadHeader+2973
	DD	imagerel $unwind$aiffReadHeader
$pdata$aifcReadHeader DD imagerel aifcReadHeader
	DD	imagerel aifcReadHeader+3487
	DD	imagerel $unwind$aifcReadHeader
pdata	ENDS
;	COMDAT __real@bf800000
CONST	SEGMENT
__real@bf800000 DD 0bf800000r			; -1
CONST	ENDS
;	COMDAT __real@41e0000000000000
CONST	SEGMENT
__real@41e0000000000000 DQ 041e0000000000000r	; 2.14748e+09
CONST	ENDS
;	COMDAT __real@40e0000000000000
CONST	SEGMENT
__real@40e0000000000000 DQ 040e0000000000000r	; 32768
CONST	ENDS
;	COMDAT __real@40dfff8000000000
CONST	SEGMENT
__real@40dfff8000000000 DQ 040dfff8000000000r	; 32766
CONST	ENDS
;	COMDAT __real@4000000000000000
CONST	SEGMENT
__real@4000000000000000 DQ 04000000000000000r	; 2
CONST	ENDS
;	COMDAT __real@3ff0000000000000
CONST	SEGMENT
__real@3ff0000000000000 DQ 03ff0000000000000r	; 1
CONST	ENDS
;	COMDAT __real@3fe0000000000000
CONST	SEGMENT
__real@3fe0000000000000 DQ 03fe0000000000000r	; 0.5
CONST	ENDS
;	COMDAT __real@3f800000
CONST	SEGMENT
__real@3f800000 DD 03f800000r			; 1
CONST	ENDS
xdata	SEGMENT
$unwind$stricmp DD 010e01H
	DD	0620eH
$unwind$strnicmp DD 011301H
	DD	08213H
$unwind$time DD	010901H
	DD	04209H
$unwind$psf_init DD 010401H
	DD	02204H
$unwind$psf_finish DD 010401H
	DD	06204H
$unwind$psf_sndCreate DD 011801H
	DD	0a218H
$unwind$psf_sndOpen DD 011301H
	DD	0a213H
$unwind$psf_sndClose DD 010801H
	DD	06208H
$unwind$psf_sndSize DD 010801H
	DD	02208H
$unwind$psf_sndWriteFloatFrames DD 021501H
	DD	01b0115H
$unwind$psf_sndWriteDoubleFrames DD 021501H
	DD	01b0115H
$unwind$psf_sndWriteShortFrames DD 011201H
	DD	0e212H
$unwind$psf_sndTell DD 010801H
	DD	08208H
$unwind$psf_sndSeek DD 011101H
	DD	0a211H
$unwind$psf_sndReadFloatFrames DD 011201H
	DD	0e212H
$unwind$psf_sndReadDoubleFrames DD 011201H
	DD	0e212H
$unwind$psf_sndReadPeaks DD 011201H
	DD	02212H
$unwind$psf_getFormatExt DD 010901H
	DD	06209H
$unwind$psf_sndSetDither DD 010c01H
	DD	0220cH
$unwind$psf_sndGetDither DD 010801H
	DD	02208H
$unwind$psf_speakermask DD 010801H
	DD	02208H
$unwind$get_speakerlayout DD 010c01H
	DD	0220cH
$unwind$trirand DD 010401H
	DD	06204H
$unwind$compare_guids DD 010e01H
	DD	0820eH
$unwind$psf_release_file DD 010901H
	DD	06209H
$unwind$byte_order DD 010401H
	DD	02204H
$unwind$fmtSwapBytes DD 010901H
	DD	02209H
$unwind$fmtExSwapBytes DD 010901H
	DD	02209H
$unwind$check_guid DD 010901H
	DD	06209H
$unwind$psf_bitsize DD 010801H
	DD	02208H
$unwind$psf_wordsize DD 010801H
	DD	02208H
$unwind$psf_round DD 010a01H
	DD	0620aH
$unwind$psf_newFile DD 010901H
	DD	0c209H
$unwind$wavUpdate DD 010901H
	DD	0a209H
$unwind$aiffUpdate DD 010901H
	DD	0c209H
$unwind$wavDoWrite DD 011301H
	DD	06213H
$unwind$wavDoRead DD 011301H
	DD	06213H
$unwind$wavWriteHeader DD 010901H
	DD	0a209H
$unwind$waveExWriteHeader DD 010901H
	DD	0a209H
$unwind$aiffWriteHeader DD 011819H
	DD	0e209H
	DD	imagerel __GSHandlerCheck
	DD	060H
$unwind$aifcWriteHeader DD 021b19H
	DD	011010cH
	DD	imagerel __GSHandlerCheck
	DD	078H
$unwind$wavReadHeader DD 020c01H
	DD	011010cH
$unwind$aiffReadHeader DD 021e19H
	DD	013010cH
	DD	imagerel __GSHandlerCheck
	DD	088H
$unwind$aifcReadHeader DD 021e19H
	DD	015010cH
	DD	imagerel __GSHandlerCheck
	DD	090H
xdata	ENDS
; Function compile flags: /Odtp
; File k:\audio\editing\current\programming\the_audio_programming_book\test_code\misc\psfmaster\portsf\portsf.c
_TEXT	SEGMENT
tag$ = 32
remain$ = 36
wData$ = 40
size$ = 44
ID_compression$ = 48
i$1 = 52
aifcver$ = 56
dwData$ = 60
version$ = 64
peaktime$ = 68
offset$ = 72
tv194 = 76
blocksize$ = 80
i$2 = 84
fac$3 = 88
tv289 = 92
have_comm$ = 96
have_ssnd$ = 100
have_fver$ = 104
tv570 = 108
pBlock$4 = 112
bytepos$ = 120
ieee$ = 128
__$ArrayPad$ = 144
sfdat$ = 176
aifcReadHeader PROC

; 2485 : {

  00000	48 89 4c 24 08	 mov	 QWORD PTR [rsp+8], rcx
  00005	48 81 ec a8 00
	00 00		 sub	 rsp, 168		; 000000a8H
  0000c	48 8b 05 00 00
	00 00		 mov	 rax, QWORD PTR __security_cookie
  00013	48 33 c4	 xor	 rax, rsp
  00016	48 89 84 24 90
	00 00 00	 mov	 QWORD PTR __$ArrayPad$[rsp], rax

; 2486 : 	DWORD tag,version,peaktime,remain,offset,blocksize;
; 2487 : 	int have_comm =0,have_ssnd =0,have_fver = 0;	

  0001e	c7 44 24 60 00
	00 00 00	 mov	 DWORD PTR have_comm$[rsp], 0
  00026	c7 44 24 64 00
	00 00 00	 mov	 DWORD PTR have_ssnd$[rsp], 0
  0002e	c7 44 24 68 00
	00 00 00	 mov	 DWORD PTR have_fver$[rsp], 0

; 2488 : 	DWORD dwData,size,aifcver,ID_compression;
; 2489 : 	unsigned char ieee[10];
; 2490 : 	WORD wData;
; 2491 : 	fpos_t bytepos;
; 2492 : 
; 2493 : 	if(sfdat==NULL || sfdat->file == NULL)

  00036	48 83 bc 24 b0
	00 00 00 00	 cmp	 QWORD PTR sfdat$[rsp], 0
  0003f	74 0e		 je	 SHORT $LN15@aifcReadHe
  00041	48 8b 84 24 b0
	00 00 00	 mov	 rax, QWORD PTR sfdat$[rsp]
  00049	48 83 38 00	 cmp	 QWORD PTR [rax], 0
  0004d	75 0a		 jne	 SHORT $LN14@aifcReadHe
$LN15@aifcReadHe:

; 2494 : 		return PSF_E_BADARG;

  0004f	b8 f6 ff ff ff	 mov	 eax, -10
  00054	e9 2e 0d 00 00	 jmp	 $LN1@aifcReadHe
$LN14@aifcReadHe:

; 2495 : 
; 2496 : 	if(wavDoRead(sfdat,(char *)&tag,sizeof(DWORD))
; 2497 : 		|| wavDoRead(sfdat,(char *) &remain,sizeof(DWORD)))

  00059	41 b8 04 00 00
	00		 mov	 r8d, 4
  0005f	48 8d 54 24 20	 lea	 rdx, QWORD PTR tag$[rsp]
  00064	48 8b 8c 24 b0
	00 00 00	 mov	 rcx, QWORD PTR sfdat$[rsp]
  0006c	e8 00 00 00 00	 call	 wavDoRead
  00071	85 c0		 test	 eax, eax
  00073	75 1c		 jne	 SHORT $LN17@aifcReadHe
  00075	41 b8 04 00 00
	00		 mov	 r8d, 4
  0007b	48 8d 54 24 24	 lea	 rdx, QWORD PTR remain$[rsp]
  00080	48 8b 8c 24 b0
	00 00 00	 mov	 rcx, QWORD PTR sfdat$[rsp]
  00088	e8 00 00 00 00	 call	 wavDoRead
  0008d	85 c0		 test	 eax, eax
  0008f	74 0a		 je	 SHORT $LN16@aifcReadHe
$LN17@aifcReadHe:

; 2498 : 		return PSF_E_CANT_READ;

  00091	b8 fc ff ff ff	 mov	 eax, -4
  00096	e9 ec 0c 00 00	 jmp	 $LN1@aifcReadHe
$LN16@aifcReadHe:

; 2499 : 	if(sfdat->is_little_endian) {

  0009b	48 8b 84 24 b0
	00 00 00	 mov	 rax, QWORD PTR sfdat$[rsp]
  000a3	83 78 2c 00	 cmp	 DWORD PTR [rax+44], 0
  000a7	74 7a		 je	 SHORT $LN18@aifcReadHe

; 2500 : 		remain = REVDWBYTES(remain);	

  000a9	8b 44 24 24	 mov	 eax, DWORD PTR remain$[rsp]
  000ad	25 ff 00 00 00	 and	 eax, 255		; 000000ffH
  000b2	c1 e0 18	 shl	 eax, 24
  000b5	8b 4c 24 24	 mov	 ecx, DWORD PTR remain$[rsp]
  000b9	81 e1 00 ff 00
	00		 and	 ecx, 65280		; 0000ff00H
  000bf	c1 e1 08	 shl	 ecx, 8
  000c2	0b c1		 or	 eax, ecx
  000c4	8b 4c 24 24	 mov	 ecx, DWORD PTR remain$[rsp]
  000c8	81 e1 00 00 ff
	00		 and	 ecx, 16711680		; 00ff0000H
  000ce	c1 e9 08	 shr	 ecx, 8
  000d1	0b c1		 or	 eax, ecx
  000d3	8b 4c 24 24	 mov	 ecx, DWORD PTR remain$[rsp]
  000d7	c1 e9 18	 shr	 ecx, 24
  000da	81 e1 ff 00 00
	00		 and	 ecx, 255		; 000000ffH
  000e0	0b c1		 or	 eax, ecx
  000e2	89 44 24 24	 mov	 DWORD PTR remain$[rsp], eax

; 2501 : 		tag = REVDWBYTES(tag);

  000e6	8b 44 24 20	 mov	 eax, DWORD PTR tag$[rsp]
  000ea	25 ff 00 00 00	 and	 eax, 255		; 000000ffH
  000ef	c1 e0 18	 shl	 eax, 24
  000f2	8b 4c 24 20	 mov	 ecx, DWORD PTR tag$[rsp]
  000f6	81 e1 00 ff 00
	00		 and	 ecx, 65280		; 0000ff00H
  000fc	c1 e1 08	 shl	 ecx, 8
  000ff	0b c1		 or	 eax, ecx
  00101	8b 4c 24 20	 mov	 ecx, DWORD PTR tag$[rsp]
  00105	81 e1 00 00 ff
	00		 and	 ecx, 16711680		; 00ff0000H
  0010b	c1 e9 08	 shr	 ecx, 8
  0010e	0b c1		 or	 eax, ecx
  00110	8b 4c 24 20	 mov	 ecx, DWORD PTR tag$[rsp]
  00114	c1 e9 18	 shr	 ecx, 24
  00117	81 e1 ff 00 00
	00		 and	 ecx, 255		; 000000ffH
  0011d	0b c1		 or	 eax, ecx
  0011f	89 44 24 20	 mov	 DWORD PTR tag$[rsp], eax
$LN18@aifcReadHe:

; 2502 : 	}
; 2503 : 	if(tag != TAG('F','O','R','M')){

  00123	81 7c 24 20 4d
	52 4f 46	 cmp	 DWORD PTR tag$[rsp], 1179603533 ; 464f524dH
  0012b	74 0a		 je	 SHORT $LN19@aifcReadHe

; 2504 : 		DBGFPRINTF((stderr, "file is not AIFC: no FORM chunk\n"));
; 2505 : 		return PSF_E_BADARG;

  0012d	b8 f6 ff ff ff	 mov	 eax, -10
  00132	e9 50 0c 00 00	 jmp	 $LN1@aifcReadHe
$LN19@aifcReadHe:

; 2506 : 	}
; 2507 : 	
; 2508 : 	if(wavDoRead(sfdat,(char *)&tag,sizeof(DWORD)))

  00137	41 b8 04 00 00
	00		 mov	 r8d, 4
  0013d	48 8d 54 24 20	 lea	 rdx, QWORD PTR tag$[rsp]
  00142	48 8b 8c 24 b0
	00 00 00	 mov	 rcx, QWORD PTR sfdat$[rsp]
  0014a	e8 00 00 00 00	 call	 wavDoRead
  0014f	85 c0		 test	 eax, eax
  00151	74 0a		 je	 SHORT $LN20@aifcReadHe

; 2509 : 		return PSF_E_CANT_READ;

  00153	b8 fc ff ff ff	 mov	 eax, -4
  00158	e9 2a 0c 00 00	 jmp	 $LN1@aifcReadHe
$LN20@aifcReadHe:

; 2510 : 	if(sfdat->is_little_endian)

  0015d	48 8b 84 24 b0
	00 00 00	 mov	 rax, QWORD PTR sfdat$[rsp]
  00165	83 78 2c 00	 cmp	 DWORD PTR [rax+44], 0
  00169	74 3d		 je	 SHORT $LN21@aifcReadHe

; 2511 : 		tag = REVDWBYTES(tag);

  0016b	8b 44 24 20	 mov	 eax, DWORD PTR tag$[rsp]
  0016f	25 ff 00 00 00	 and	 eax, 255		; 000000ffH
  00174	c1 e0 18	 shl	 eax, 24
  00177	8b 4c 24 20	 mov	 ecx, DWORD PTR tag$[rsp]
  0017b	81 e1 00 ff 00
	00		 and	 ecx, 65280		; 0000ff00H
  00181	c1 e1 08	 shl	 ecx, 8
  00184	0b c1		 or	 eax, ecx
  00186	8b 4c 24 20	 mov	 ecx, DWORD PTR tag$[rsp]
  0018a	81 e1 00 00 ff
	00		 and	 ecx, 16711680		; 00ff0000H
  00190	c1 e9 08	 shr	 ecx, 8
  00193	0b c1		 or	 eax, ecx
  00195	8b 4c 24 20	 mov	 ecx, DWORD PTR tag$[rsp]
  00199	c1 e9 18	 shr	 ecx, 24
  0019c	81 e1 ff 00 00
	00		 and	 ecx, 255		; 000000ffH
  001a2	0b c1		 or	 eax, ecx
  001a4	89 44 24 20	 mov	 DWORD PTR tag$[rsp], eax
$LN21@aifcReadHe:

; 2512 : 	if(tag != TAG('A','I','F','C')){

  001a8	81 7c 24 20 43
	46 49 41	 cmp	 DWORD PTR tag$[rsp], 1095321155 ; 41494643H
  001b0	74 0a		 je	 SHORT $LN22@aifcReadHe

; 2513 : 		DBGFPRINTF((stderr, "file is not AIFC: no AIFC chunk\n"));
; 2514 : 		return PSF_E_BADARG;

  001b2	b8 f6 ff ff ff	 mov	 eax, -10
  001b7	e9 cb 0b 00 00	 jmp	 $LN1@aifcReadHe
$LN22@aifcReadHe:

; 2515 : 	}
; 2516 : 	remain -= sizeof(DWORD);

  001bc	8b 44 24 24	 mov	 eax, DWORD PTR remain$[rsp]
  001c0	48 83 e8 04	 sub	 rax, 4
  001c4	89 44 24 24	 mov	 DWORD PTR remain$[rsp], eax
$LN2@aifcReadHe:

; 2517 : 
; 2518 : 
; 2519 : 	while(remain > 0){

  001c8	83 7c 24 24 00	 cmp	 DWORD PTR remain$[rsp], 0
  001cd	0f 86 55 0a 00
	00		 jbe	 $LN3@aifcReadHe

; 2520 : 		if(wavDoRead(sfdat,(char *)&tag,sizeof(DWORD))
; 2521 : 		|| wavDoRead(sfdat,(char *) &size,sizeof(DWORD)))

  001d3	41 b8 04 00 00
	00		 mov	 r8d, 4
  001d9	48 8d 54 24 20	 lea	 rdx, QWORD PTR tag$[rsp]
  001de	48 8b 8c 24 b0
	00 00 00	 mov	 rcx, QWORD PTR sfdat$[rsp]
  001e6	e8 00 00 00 00	 call	 wavDoRead
  001eb	85 c0		 test	 eax, eax
  001ed	75 1c		 jne	 SHORT $LN24@aifcReadHe
  001ef	41 b8 04 00 00
	00		 mov	 r8d, 4
  001f5	48 8d 54 24 2c	 lea	 rdx, QWORD PTR size$[rsp]
  001fa	48 8b 8c 24 b0
	00 00 00	 mov	 rcx, QWORD PTR sfdat$[rsp]
  00202	e8 00 00 00 00	 call	 wavDoRead
  00207	85 c0		 test	 eax, eax
  00209	74 0a		 je	 SHORT $LN23@aifcReadHe
$LN24@aifcReadHe:

; 2522 : 			return PSF_E_CANT_READ;

  0020b	b8 fc ff ff ff	 mov	 eax, -4
  00210	e9 72 0b 00 00	 jmp	 $LN1@aifcReadHe
$LN23@aifcReadHe:

; 2523 : 		if(sfdat->is_little_endian) {

  00215	48 8b 84 24 b0
	00 00 00	 mov	 rax, QWORD PTR sfdat$[rsp]
  0021d	83 78 2c 00	 cmp	 DWORD PTR [rax+44], 0
  00221	74 7a		 je	 SHORT $LN25@aifcReadHe

; 2524 : 			size = REVDWBYTES(size);	

  00223	8b 44 24 2c	 mov	 eax, DWORD PTR size$[rsp]
  00227	25 ff 00 00 00	 and	 eax, 255		; 000000ffH
  0022c	c1 e0 18	 shl	 eax, 24
  0022f	8b 4c 24 2c	 mov	 ecx, DWORD PTR size$[rsp]
  00233	81 e1 00 ff 00
	00		 and	 ecx, 65280		; 0000ff00H
  00239	c1 e1 08	 shl	 ecx, 8
  0023c	0b c1		 or	 eax, ecx
  0023e	8b 4c 24 2c	 mov	 ecx, DWORD PTR size$[rsp]
  00242	81 e1 00 00 ff
	00		 and	 ecx, 16711680		; 00ff0000H
  00248	c1 e9 08	 shr	 ecx, 8
  0024b	0b c1		 or	 eax, ecx
  0024d	8b 4c 24 2c	 mov	 ecx, DWORD PTR size$[rsp]
  00251	c1 e9 18	 shr	 ecx, 24
  00254	81 e1 ff 00 00
	00		 and	 ecx, 255		; 000000ffH
  0025a	0b c1		 or	 eax, ecx
  0025c	89 44 24 2c	 mov	 DWORD PTR size$[rsp], eax

; 2525 : 			tag = REVDWBYTES(tag);

  00260	8b 44 24 20	 mov	 eax, DWORD PTR tag$[rsp]
  00264	25 ff 00 00 00	 and	 eax, 255		; 000000ffH
  00269	c1 e0 18	 shl	 eax, 24
  0026c	8b 4c 24 20	 mov	 ecx, DWORD PTR tag$[rsp]
  00270	81 e1 00 ff 00
	00		 and	 ecx, 65280		; 0000ff00H
  00276	c1 e1 08	 shl	 ecx, 8
  00279	0b c1		 or	 eax, ecx
  0027b	8b 4c 24 20	 mov	 ecx, DWORD PTR tag$[rsp]
  0027f	81 e1 00 00 ff
	00		 and	 ecx, 16711680		; 00ff0000H
  00285	c1 e9 08	 shr	 ecx, 8
  00288	0b c1		 or	 eax, ecx
  0028a	8b 4c 24 20	 mov	 ecx, DWORD PTR tag$[rsp]
  0028e	c1 e9 18	 shr	 ecx, 24
  00291	81 e1 ff 00 00
	00		 and	 ecx, 255		; 000000ffH
  00297	0b c1		 or	 eax, ecx
  00299	89 44 24 20	 mov	 DWORD PTR tag$[rsp], eax
$LN25@aifcReadHe:

; 2526 : 		}
; 2527 : 		remain -= 2 * sizeof(DWORD);

  0029d	8b 44 24 24	 mov	 eax, DWORD PTR remain$[rsp]
  002a1	48 83 e8 08	 sub	 rax, 8
  002a5	89 44 24 24	 mov	 DWORD PTR remain$[rsp], eax

; 2528 : 		switch(tag){

  002a9	8b 44 24 20	 mov	 eax, DWORD PTR tag$[rsp]
  002ad	89 44 24 4c	 mov	 DWORD PTR tv194[rsp], eax
  002b1	83 7c 24 4c 00	 cmp	 DWORD PTR tv194[rsp], 0
  002b6	0f 84 19 09 00
	00		 je	 $LN71@aifcReadHe
  002bc	81 7c 24 4c 4d
	4d 4f 43	 cmp	 DWORD PTR tv194[rsp], 1129270605 ; 434f4d4dH
  002c4	0f 84 dd 00 00
	00		 je	 $LN31@aifcReadHe
  002ca	81 7c 24 4c 52
	45 56 46	 cmp	 DWORD PTR tv194[rsp], 1180058962 ; 46564552H
  002d2	74 21		 je	 SHORT $LN26@aifcReadHe
  002d4	81 7c 24 4c 4b
	41 45 50	 cmp	 DWORD PTR tv194[rsp], 1346715979 ; 5045414bH
  002dc	0f 84 9b 04 00
	00		 je	 $LN53@aifcReadHe
  002e2	81 7c 24 4c 44
	4e 53 53	 cmp	 DWORD PTR tv194[rsp], 1397968452 ; 53534e44H
  002ea	0f 84 56 07 00
	00		 je	 $LN65@aifcReadHe
  002f0	e9 ea 08 00 00	 jmp	 $LN72@aifcReadHe
$LN26@aifcReadHe:

; 2529 : 		case(TAG('F','V','E','R')):
; 2530 : 			if(size != sizeof(DWORD)){

  002f5	8b 44 24 2c	 mov	 eax, DWORD PTR size$[rsp]
  002f9	48 83 f8 04	 cmp	 rax, 4
  002fd	74 0a		 je	 SHORT $LN27@aifcReadHe

; 2531 : 				DBGFPRINTF((stderr, "AIFC file has bad size for FVER chunk\n"));
; 2532 : 				return PSF_E_BAD_FORMAT;

  002ff	b8 f9 ff ff ff	 mov	 eax, -7
  00304	e9 7e 0a 00 00	 jmp	 $LN1@aifcReadHe
$LN27@aifcReadHe:

; 2533 : 			}
; 2534 : 			if(wavDoRead(sfdat,(char *) &aifcver,sizeof(DWORD)))

  00309	41 b8 04 00 00
	00		 mov	 r8d, 4
  0030f	48 8d 54 24 38	 lea	 rdx, QWORD PTR aifcver$[rsp]
  00314	48 8b 8c 24 b0
	00 00 00	 mov	 rcx, QWORD PTR sfdat$[rsp]
  0031c	e8 00 00 00 00	 call	 wavDoRead
  00321	85 c0		 test	 eax, eax
  00323	74 0a		 je	 SHORT $LN28@aifcReadHe

; 2535 : 				return PSF_E_CANT_READ;

  00325	b8 fc ff ff ff	 mov	 eax, -4
  0032a	e9 58 0a 00 00	 jmp	 $LN1@aifcReadHe
$LN28@aifcReadHe:

; 2536 : 			if(sfdat->is_little_endian) 

  0032f	48 8b 84 24 b0
	00 00 00	 mov	 rax, QWORD PTR sfdat$[rsp]
  00337	83 78 2c 00	 cmp	 DWORD PTR [rax+44], 0
  0033b	74 3d		 je	 SHORT $LN29@aifcReadHe

; 2537 : 				aifcver = REVDWBYTES(aifcver);

  0033d	8b 44 24 38	 mov	 eax, DWORD PTR aifcver$[rsp]
  00341	25 ff 00 00 00	 and	 eax, 255		; 000000ffH
  00346	c1 e0 18	 shl	 eax, 24
  00349	8b 4c 24 38	 mov	 ecx, DWORD PTR aifcver$[rsp]
  0034d	81 e1 00 ff 00
	00		 and	 ecx, 65280		; 0000ff00H
  00353	c1 e1 08	 shl	 ecx, 8
  00356	0b c1		 or	 eax, ecx
  00358	8b 4c 24 38	 mov	 ecx, DWORD PTR aifcver$[rsp]
  0035c	81 e1 00 00 ff
	00		 and	 ecx, 16711680		; 00ff0000H
  00362	c1 e9 08	 shr	 ecx, 8
  00365	0b c1		 or	 eax, ecx
  00367	8b 4c 24 38	 mov	 ecx, DWORD PTR aifcver$[rsp]
  0036b	c1 e9 18	 shr	 ecx, 24
  0036e	81 e1 ff 00 00
	00		 and	 ecx, 255		; 000000ffH
  00374	0b c1		 or	 eax, ecx
  00376	89 44 24 38	 mov	 DWORD PTR aifcver$[rsp], eax
$LN29@aifcReadHe:

; 2538 : 			remain-= sizeof(DWORD);

  0037a	8b 44 24 24	 mov	 eax, DWORD PTR remain$[rsp]
  0037e	48 83 e8 04	 sub	 rax, 4
  00382	89 44 24 24	 mov	 DWORD PTR remain$[rsp], eax

; 2539 : 			if(aifcver != AIFC_VERSION_1)

  00386	81 7c 24 38 40
	51 80 a2	 cmp	 DWORD PTR aifcver$[rsp], -1568648896 ; a2805140H
  0038e	74 0a		 je	 SHORT $LN30@aifcReadHe

; 2540 : 				return PSF_E_UNSUPPORTED;

  00390	b8 f8 ff ff ff	 mov	 eax, -8
  00395	e9 ed 09 00 00	 jmp	 $LN1@aifcReadHe
$LN30@aifcReadHe:

; 2541 : 			have_fver = 1;

  0039a	c7 44 24 68 01
	00 00 00	 mov	 DWORD PTR have_fver$[rsp], 1

; 2542 : 			break;

  003a2	e9 7c 08 00 00	 jmp	 $LN4@aifcReadHe
$LN31@aifcReadHe:

; 2543 : 		case(TAG('C','O','M','M')):
; 2544 : 			if(size < 22) {

  003a7	83 7c 24 2c 16	 cmp	 DWORD PTR size$[rsp], 22
  003ac	73 0a		 jae	 SHORT $LN32@aifcReadHe

; 2545 : 			   DBGFPRINTF((stderr, "AIFC file has bad size for COMM chunk\n"));
; 2546 : 			   return PSF_E_BAD_FORMAT;

  003ae	b8 f9 ff ff ff	 mov	 eax, -7
  003b3	e9 cf 09 00 00	 jmp	 $LN1@aifcReadHe
$LN32@aifcReadHe:

; 2547 : 			}
; 2548 : 			if(fgetpos(sfdat->file,&sfdat->fmtoffset))

  003b8	48 8b 84 24 b0
	00 00 00	 mov	 rax, QWORD PTR sfdat$[rsp]
  003c0	48 83 c0 40	 add	 rax, 64			; 00000040H
  003c4	48 8b d0	 mov	 rdx, rax
  003c7	48 8b 84 24 b0
	00 00 00	 mov	 rax, QWORD PTR sfdat$[rsp]
  003cf	48 8b 08	 mov	 rcx, QWORD PTR [rax]
  003d2	e8 00 00 00 00	 call	 fgetpos
  003d7	85 c0		 test	 eax, eax
  003d9	74 0a		 je	 SHORT $LN33@aifcReadHe

; 2549 : 			    return PSF_E_CANT_SEEK;

  003db	b8 f5 ff ff ff	 mov	 eax, -11
  003e0	e9 a2 09 00 00	 jmp	 $LN1@aifcReadHe
$LN33@aifcReadHe:

; 2550 : 			if(wavDoRead(sfdat,(char *)&wData,sizeof(WORD)))

  003e5	41 b8 02 00 00
	00		 mov	 r8d, 2
  003eb	48 8d 54 24 28	 lea	 rdx, QWORD PTR wData$[rsp]
  003f0	48 8b 8c 24 b0
	00 00 00	 mov	 rcx, QWORD PTR sfdat$[rsp]
  003f8	e8 00 00 00 00	 call	 wavDoRead
  003fd	85 c0		 test	 eax, eax
  003ff	74 0a		 je	 SHORT $LN34@aifcReadHe

; 2551 : 				return PSF_E_CANT_READ;

  00401	b8 fc ff ff ff	 mov	 eax, -4
  00406	e9 7c 09 00 00	 jmp	 $LN1@aifcReadHe
$LN34@aifcReadHe:

; 2552 : 			if(sfdat->is_little_endian)

  0040b	48 8b 84 24 b0
	00 00 00	 mov	 rax, QWORD PTR sfdat$[rsp]
  00413	83 78 2c 00	 cmp	 DWORD PTR [rax+44], 0
  00417	74 22		 je	 SHORT $LN35@aifcReadHe

; 2553 : 				wData = (WORD) REVWBYTES(wData);

  00419	0f b7 44 24 28	 movzx	 eax, WORD PTR wData$[rsp]
  0041e	25 ff 00 00 00	 and	 eax, 255		; 000000ffH
  00423	c1 e0 08	 shl	 eax, 8
  00426	0f b7 4c 24 28	 movzx	 ecx, WORD PTR wData$[rsp]
  0042b	c1 f9 08	 sar	 ecx, 8
  0042e	81 e1 ff 00 00
	00		 and	 ecx, 255		; 000000ffH
  00434	0b c1		 or	 eax, ecx
  00436	66 89 44 24 28	 mov	 WORD PTR wData$[rsp], ax
$LN35@aifcReadHe:

; 2554 : 			sfdat->fmt.Format.nChannels = wData;

  0043b	48 8b 84 24 b0
	00 00 00	 mov	 rax, QWORD PTR sfdat$[rsp]
  00443	0f b7 4c 24 28	 movzx	 ecx, WORD PTR wData$[rsp]
  00448	66 89 48 52	 mov	 WORD PTR [rax+82], cx

; 2555 : 			if(wavDoRead(sfdat,(char *)&dwData,sizeof(DWORD)))

  0044c	41 b8 04 00 00
	00		 mov	 r8d, 4
  00452	48 8d 54 24 3c	 lea	 rdx, QWORD PTR dwData$[rsp]
  00457	48 8b 8c 24 b0
	00 00 00	 mov	 rcx, QWORD PTR sfdat$[rsp]
  0045f	e8 00 00 00 00	 call	 wavDoRead
  00464	85 c0		 test	 eax, eax
  00466	74 0a		 je	 SHORT $LN36@aifcReadHe

; 2556 : 				return PSF_E_CANT_READ;

  00468	b8 fc ff ff ff	 mov	 eax, -4
  0046d	e9 15 09 00 00	 jmp	 $LN1@aifcReadHe
$LN36@aifcReadHe:

; 2557 : 			if(sfdat->is_little_endian)

  00472	48 8b 84 24 b0
	00 00 00	 mov	 rax, QWORD PTR sfdat$[rsp]
  0047a	83 78 2c 00	 cmp	 DWORD PTR [rax+44], 0
  0047e	74 3d		 je	 SHORT $LN37@aifcReadHe

; 2558 : 				dwData = REVDWBYTES(dwData);

  00480	8b 44 24 3c	 mov	 eax, DWORD PTR dwData$[rsp]
  00484	25 ff 00 00 00	 and	 eax, 255		; 000000ffH
  00489	c1 e0 18	 shl	 eax, 24
  0048c	8b 4c 24 3c	 mov	 ecx, DWORD PTR dwData$[rsp]
  00490	81 e1 00 ff 00
	00		 and	 ecx, 65280		; 0000ff00H
  00496	c1 e1 08	 shl	 ecx, 8
  00499	0b c1		 or	 eax, ecx
  0049b	8b 4c 24 3c	 mov	 ecx, DWORD PTR dwData$[rsp]
  0049f	81 e1 00 00 ff
	00		 and	 ecx, 16711680		; 00ff0000H
  004a5	c1 e9 08	 shr	 ecx, 8
  004a8	0b c1		 or	 eax, ecx
  004aa	8b 4c 24 3c	 mov	 ecx, DWORD PTR dwData$[rsp]
  004ae	c1 e9 18	 shr	 ecx, 24
  004b1	81 e1 ff 00 00
	00		 and	 ecx, 255		; 000000ffH
  004b7	0b c1		 or	 eax, ecx
  004b9	89 44 24 3c	 mov	 DWORD PTR dwData$[rsp], eax
$LN37@aifcReadHe:

; 2559 : 			sfdat->nFrames = dwData;

  004bd	48 8b 84 24 b0
	00 00 00	 mov	 rax, QWORD PTR sfdat$[rsp]
  004c5	8b 4c 24 3c	 mov	 ecx, DWORD PTR dwData$[rsp]
  004c9	89 48 14	 mov	 DWORD PTR [rax+20], ecx

; 2560 : 			if(wavDoRead(sfdat,(char *)&wData,sizeof(WORD)))

  004cc	41 b8 02 00 00
	00		 mov	 r8d, 2
  004d2	48 8d 54 24 28	 lea	 rdx, QWORD PTR wData$[rsp]
  004d7	48 8b 8c 24 b0
	00 00 00	 mov	 rcx, QWORD PTR sfdat$[rsp]
  004df	e8 00 00 00 00	 call	 wavDoRead
  004e4	85 c0		 test	 eax, eax
  004e6	74 0a		 je	 SHORT $LN38@aifcReadHe

; 2561 : 				return PSF_E_CANT_READ;

  004e8	b8 fc ff ff ff	 mov	 eax, -4
  004ed	e9 95 08 00 00	 jmp	 $LN1@aifcReadHe
$LN38@aifcReadHe:

; 2562 : 			if(sfdat->is_little_endian)

  004f2	48 8b 84 24 b0
	00 00 00	 mov	 rax, QWORD PTR sfdat$[rsp]
  004fa	83 78 2c 00	 cmp	 DWORD PTR [rax+44], 0
  004fe	74 22		 je	 SHORT $LN39@aifcReadHe

; 2563 : 				wData = (WORD) REVWBYTES(wData);

  00500	0f b7 44 24 28	 movzx	 eax, WORD PTR wData$[rsp]
  00505	25 ff 00 00 00	 and	 eax, 255		; 000000ffH
  0050a	c1 e0 08	 shl	 eax, 8
  0050d	0f b7 4c 24 28	 movzx	 ecx, WORD PTR wData$[rsp]
  00512	c1 f9 08	 sar	 ecx, 8
  00515	81 e1 ff 00 00
	00		 and	 ecx, 255		; 000000ffH
  0051b	0b c1		 or	 eax, ecx
  0051d	66 89 44 24 28	 mov	 WORD PTR wData$[rsp], ax
$LN39@aifcReadHe:

; 2564 : 			sfdat->fmt.Format.wBitsPerSample = wData;

  00522	48 8b 84 24 b0
	00 00 00	 mov	 rax, QWORD PTR sfdat$[rsp]
  0052a	0f b7 4c 24 28	 movzx	 ecx, WORD PTR wData$[rsp]
  0052f	66 89 48 5e	 mov	 WORD PTR [rax+94], cx

; 2565 : 			if(wavDoRead(sfdat,ieee,10))

  00533	41 b8 0a 00 00
	00		 mov	 r8d, 10
  00539	48 8d 94 24 80
	00 00 00	 lea	 rdx, QWORD PTR ieee$[rsp]
  00541	48 8b 8c 24 b0
	00 00 00	 mov	 rcx, QWORD PTR sfdat$[rsp]
  00549	e8 00 00 00 00	 call	 wavDoRead
  0054e	85 c0		 test	 eax, eax
  00550	74 0a		 je	 SHORT $LN40@aifcReadHe

; 2566 : 				return PSF_E_CANT_READ;

  00552	b8 fc ff ff ff	 mov	 eax, -4
  00557	e9 2b 08 00 00	 jmp	 $LN1@aifcReadHe
$LN40@aifcReadHe:

; 2567 : 			sfdat->fmt.Format.nSamplesPerSec = (DWORD)(ieee_80_to_double(ieee));

  0055c	48 8d 8c 24 80
	00 00 00	 lea	 rcx, QWORD PTR ieee$[rsp]
  00564	e8 00 00 00 00	 call	 ieee_80_to_double
  00569	f2 48 0f 2c c0	 cvttsd2si rax, xmm0
  0056e	48 8b 8c 24 b0
	00 00 00	 mov	 rcx, QWORD PTR sfdat$[rsp]
  00576	89 41 54	 mov	 DWORD PTR [rcx+84], eax

; 2568 : 			/*we have to deduce blockalign, and hence containersize*/
; 2569 : 			/* no support for strange wordsizes such as 20 in 24 */
; 2570 : 			switch(sfdat->fmt.Format.wBitsPerSample){

  00579	48 8b 84 24 b0
	00 00 00	 mov	 rax, QWORD PTR sfdat$[rsp]
  00581	0f b7 40 5e	 movzx	 eax, WORD PTR [rax+94]
  00585	89 44 24 5c	 mov	 DWORD PTR tv289[rsp], eax
  00589	83 7c 24 5c 10	 cmp	 DWORD PTR tv289[rsp], 16
  0058e	74 54		 je	 SHORT $LN43@aifcReadHe
  00590	83 7c 24 5c 18	 cmp	 DWORD PTR tv289[rsp], 24
  00595	74 2b		 je	 SHORT $LN42@aifcReadHe
  00597	83 7c 24 5c 20	 cmp	 DWORD PTR tv289[rsp], 32 ; 00000020H
  0059c	74 02		 je	 SHORT $LN41@aifcReadHe
  0059e	eb 66		 jmp	 SHORT $LN44@aifcReadHe
$LN41@aifcReadHe:

; 2571 : 			case(32):
; 2572 : 				sfdat->fmt.Format.nBlockAlign = sizeof(DWORD);

  005a0	b8 04 00 00 00	 mov	 eax, 4
  005a5	48 8b 8c 24 b0
	00 00 00	 mov	 rcx, QWORD PTR sfdat$[rsp]
  005ad	66 89 41 5c	 mov	 WORD PTR [rcx+92], ax

; 2573 : 				sfdat->samptype = PSF_SAMP_32;

  005b1	48 8b 84 24 b0
	00 00 00	 mov	 rax, QWORD PTR sfdat$[rsp]
  005b9	c7 40 30 04 00
	00 00		 mov	 DWORD PTR [rax+48], 4

; 2574 : 				break;			

  005c0	eb 4e		 jmp	 SHORT $LN6@aifcReadHe
$LN42@aifcReadHe:

; 2575 : 			case(24):
; 2576 : 				sfdat->fmt.Format.nBlockAlign = 3;

  005c2	b8 03 00 00 00	 mov	 eax, 3
  005c7	48 8b 8c 24 b0
	00 00 00	 mov	 rcx, QWORD PTR sfdat$[rsp]
  005cf	66 89 41 5c	 mov	 WORD PTR [rcx+92], ax

; 2577 : 				sfdat->samptype = PSF_SAMP_24;

  005d3	48 8b 84 24 b0
	00 00 00	 mov	 rax, QWORD PTR sfdat$[rsp]
  005db	c7 40 30 03 00
	00 00		 mov	 DWORD PTR [rax+48], 3

; 2578 : 				break;

  005e2	eb 2c		 jmp	 SHORT $LN6@aifcReadHe
$LN43@aifcReadHe:

; 2579 : 			case(16):
; 2580 : 				sfdat->fmt.Format.nBlockAlign = sizeof(short);

  005e4	b8 02 00 00 00	 mov	 eax, 2
  005e9	48 8b 8c 24 b0
	00 00 00	 mov	 rcx, QWORD PTR sfdat$[rsp]
  005f1	66 89 41 5c	 mov	 WORD PTR [rcx+92], ax

; 2581 : 				sfdat->samptype = PSF_SAMP_16;

  005f5	48 8b 84 24 b0
	00 00 00	 mov	 rax, QWORD PTR sfdat$[rsp]
  005fd	c7 40 30 02 00
	00 00		 mov	 DWORD PTR [rax+48], 2

; 2582 : 				break;			

  00604	eb 0a		 jmp	 SHORT $LN6@aifcReadHe
$LN44@aifcReadHe:

; 2583 : 			default:
; 2584 : 				DBGFPRINTF((stderr, "unsupported sample format for AIFC file\n"));
; 2585 : 				return PSF_E_UNSUPPORTED;

  00606	b8 f8 ff ff ff	 mov	 eax, -8
  0060b	e9 77 07 00 00	 jmp	 $LN1@aifcReadHe
$LN6@aifcReadHe:

; 2586 : 			}
; 2587 : 			sfdat->fmt.Format.nBlockAlign = (WORD) (sfdat->fmt.Format.nBlockAlign * sfdat->fmt.Format.nChannels);

  00610	48 8b 84 24 b0
	00 00 00	 mov	 rax, QWORD PTR sfdat$[rsp]
  00618	0f b7 40 5c	 movzx	 eax, WORD PTR [rax+92]
  0061c	48 8b 8c 24 b0
	00 00 00	 mov	 rcx, QWORD PTR sfdat$[rsp]
  00624	0f b7 49 52	 movzx	 ecx, WORD PTR [rcx+82]
  00628	0f af c1	 imul	 eax, ecx
  0062b	48 8b 8c 24 b0
	00 00 00	 mov	 rcx, QWORD PTR sfdat$[rsp]
  00633	66 89 41 5c	 mov	 WORD PTR [rcx+92], ax

; 2588 : 			if(wavDoRead(sfdat,(char *)&ID_compression,sizeof(DWORD))){

  00637	41 b8 04 00 00
	00		 mov	 r8d, 4
  0063d	48 8d 54 24 30	 lea	 rdx, QWORD PTR ID_compression$[rsp]
  00642	48 8b 8c 24 b0
	00 00 00	 mov	 rcx, QWORD PTR sfdat$[rsp]
  0064a	e8 00 00 00 00	 call	 wavDoRead
  0064f	85 c0		 test	 eax, eax
  00651	74 0a		 je	 SHORT $LN45@aifcReadHe

; 2589 : 				return PSF_E_CANT_READ;	

  00653	b8 fc ff ff ff	 mov	 eax, -4
  00658	e9 2a 07 00 00	 jmp	 $LN1@aifcReadHe
$LN45@aifcReadHe:

; 2590 : 			}
; 2591 : 			if(sfdat->is_little_endian)

  0065d	48 8b 84 24 b0
	00 00 00	 mov	 rax, QWORD PTR sfdat$[rsp]
  00665	83 78 2c 00	 cmp	 DWORD PTR [rax+44], 0
  00669	74 3d		 je	 SHORT $LN46@aifcReadHe

; 2592 : 				ID_compression = REVDWBYTES(ID_compression);

  0066b	8b 44 24 30	 mov	 eax, DWORD PTR ID_compression$[rsp]
  0066f	25 ff 00 00 00	 and	 eax, 255		; 000000ffH
  00674	c1 e0 18	 shl	 eax, 24
  00677	8b 4c 24 30	 mov	 ecx, DWORD PTR ID_compression$[rsp]
  0067b	81 e1 00 ff 00
	00		 and	 ecx, 65280		; 0000ff00H
  00681	c1 e1 08	 shl	 ecx, 8
  00684	0b c1		 or	 eax, ecx
  00686	8b 4c 24 30	 mov	 ecx, DWORD PTR ID_compression$[rsp]
  0068a	81 e1 00 00 ff
	00		 and	 ecx, 16711680		; 00ff0000H
  00690	c1 e9 08	 shr	 ecx, 8
  00693	0b c1		 or	 eax, ecx
  00695	8b 4c 24 30	 mov	 ecx, DWORD PTR ID_compression$[rsp]
  00699	c1 e9 18	 shr	 ecx, 24
  0069c	81 e1 ff 00 00
	00		 and	 ecx, 255		; 000000ffH
  006a2	0b c1		 or	 eax, ecx
  006a4	89 44 24 30	 mov	 DWORD PTR ID_compression$[rsp], eax
$LN46@aifcReadHe:

; 2593 :             /* TODO: recognize any more pcm quasi-compression formats? */    
; 2594 : 			if(!(    (ID_compression == TAG('N','O','N','E'))

  006a8	81 7c 24 30 45
	4e 4f 4e	 cmp	 DWORD PTR ID_compression$[rsp], 1313820229 ; 4e4f4e45H
  006b0	74 28		 je	 SHORT $LN47@aifcReadHe
  006b2	81 7c 24 30 32
	33 4c 46	 cmp	 DWORD PTR ID_compression$[rsp], 1179398962 ; 464c3332H
  006ba	74 1e		 je	 SHORT $LN47@aifcReadHe
  006bc	81 7c 24 30 32
	33 6c 66	 cmp	 DWORD PTR ID_compression$[rsp], 1718367026 ; 666c3332H
  006c4	74 14		 je	 SHORT $LN47@aifcReadHe
  006c6	81 7c 24 30 34
	32 6e 69	 cmp	 DWORD PTR ID_compression$[rsp], 1768829492 ; 696e3234H
  006ce	74 0a		 je	 SHORT $LN47@aifcReadHe

; 2595 : 				  || (ID_compression == TAG('F','L','3','2'))	
; 2596 : 				  || (ID_compression == TAG('f','l','3','2'))
; 2597 :                   || (ID_compression == TAG('i','n','2','4')))	
; 2598 : 						  ){
; 2599 : 				DBGFPRINTF((stderr, "AIFC file: unsupported compression format\n"));
; 2600 : 				return PSF_E_UNSUPPORTED;

  006d0	b8 f8 ff ff ff	 mov	 eax, -8
  006d5	e9 ad 06 00 00	 jmp	 $LN1@aifcReadHe
$LN47@aifcReadHe:

; 2601 : 			}
; 2602 : 			/*set stype info */
; 2603 : 			if((ID_compression== TAG('F','L','3','2'))		  
; 2604 : 				|| ID_compression == TAG('f','l','3','2')){

  006da	81 7c 24 30 32
	33 4c 46	 cmp	 DWORD PTR ID_compression$[rsp], 1179398962 ; 464c3332H
  006e2	74 0a		 je	 SHORT $LN49@aifcReadHe
  006e4	81 7c 24 30 32
	33 6c 66	 cmp	 DWORD PTR ID_compression$[rsp], 1718367026 ; 666c3332H
  006ec	75 3d		 jne	 SHORT $LN48@aifcReadHe
$LN49@aifcReadHe:

; 2605 : 					if(sfdat->fmt.Format.wBitsPerSample != 32){						

  006ee	48 8b 84 24 b0
	00 00 00	 mov	 rax, QWORD PTR sfdat$[rsp]
  006f6	0f b7 40 5e	 movzx	 eax, WORD PTR [rax+94]
  006fa	83 f8 20	 cmp	 eax, 32			; 00000020H
  006fd	74 0c		 je	 SHORT $LN50@aifcReadHe

; 2606 : 						DBGFPRINTF((stderr, "AIFC file: samples not 32bit in floats file\n"));
; 2607 : 						return PSF_E_BAD_FORMAT;

  006ff	b8 f9 ff ff ff	 mov	 eax, -7
  00704	e9 7e 06 00 00	 jmp	 $LN1@aifcReadHe

; 2608 : 					}

  00709	eb 20		 jmp	 SHORT $LN51@aifcReadHe
$LN50@aifcReadHe:

; 2609 : 					else {
; 2610 : 						sfdat->fmt.Format.wFormatTag = WAVE_FORMAT_IEEE_FLOAT;			

  0070b	b8 03 00 00 00	 mov	 eax, 3
  00710	48 8b 8c 24 b0
	00 00 00	 mov	 rcx, QWORD PTR sfdat$[rsp]
  00718	66 89 41 50	 mov	 WORD PTR [rcx+80], ax

; 2611 : 						sfdat->samptype = PSF_SAMP_IEEE_FLOAT;

  0071c	48 8b 84 24 b0
	00 00 00	 mov	 rax, QWORD PTR sfdat$[rsp]
  00724	c7 40 30 05 00
	00 00		 mov	 DWORD PTR [rax+48], 5
$LN51@aifcReadHe:
$LN48@aifcReadHe:

; 2612 : 					}
; 2613 : 			}
; 2614 : 			/* yes, lazy! skip past pascal string*/
; 2615 : 			if(fseek(sfdat->file,((size-22)+1)&~1,SEEK_CUR))	/*written for documentation, not terseness!*/

  0072b	8b 44 24 2c	 mov	 eax, DWORD PTR size$[rsp]
  0072f	83 e8 15	 sub	 eax, 21
  00732	83 e0 fe	 and	 eax, -2			; fffffffeH
  00735	41 b8 01 00 00
	00		 mov	 r8d, 1
  0073b	8b d0		 mov	 edx, eax
  0073d	48 8b 84 24 b0
	00 00 00	 mov	 rax, QWORD PTR sfdat$[rsp]
  00745	48 8b 08	 mov	 rcx, QWORD PTR [rax]
  00748	e8 00 00 00 00	 call	 fseek
  0074d	85 c0		 test	 eax, eax
  0074f	74 0a		 je	 SHORT $LN52@aifcReadHe

; 2616 : 				return PSF_E_CANT_SEEK;

  00751	b8 f5 ff ff ff	 mov	 eax, -11
  00756	e9 2c 06 00 00	 jmp	 $LN1@aifcReadHe
$LN52@aifcReadHe:

; 2617 : 			remain -= (size+1)&~1;

  0075b	8b 44 24 2c	 mov	 eax, DWORD PTR size$[rsp]
  0075f	ff c0		 inc	 eax
  00761	83 e0 fe	 and	 eax, -2			; fffffffeH
  00764	8b 4c 24 24	 mov	 ecx, DWORD PTR remain$[rsp]
  00768	2b c8		 sub	 ecx, eax
  0076a	8b c1		 mov	 eax, ecx
  0076c	89 44 24 24	 mov	 DWORD PTR remain$[rsp], eax

; 2618 : 			have_comm = 1;

  00770	c7 44 24 60 01
	00 00 00	 mov	 DWORD PTR have_comm$[rsp], 1

; 2619 : 			break;

  00778	e9 a6 04 00 00	 jmp	 $LN4@aifcReadHe
$LN53@aifcReadHe:

; 2620 : 		case (TAG('P','E','A','K')):
; 2621 : 			if(!have_comm){

  0077d	83 7c 24 60 00	 cmp	 DWORD PTR have_comm$[rsp], 0
  00782	75 0a		 jne	 SHORT $LN54@aifcReadHe

; 2622 : 				DBGFPRINTF((stderr, "\nAIFC file: found PEAK chunk before COMM chunk!\n"));
; 2623 : 				return PSF_E_BAD_FORMAT;

  00784	b8 f9 ff ff ff	 mov	 eax, -7
  00789	e9 f9 05 00 00	 jmp	 $LN1@aifcReadHe
$LN54@aifcReadHe:

; 2624 : 			}
; 2625 : 			if(size != (2 * sizeof(DWORD) + sizeof(PSF_CHPEAK) * sfdat->fmt.Format.nChannels)){

  0078e	8b 44 24 2c	 mov	 eax, DWORD PTR size$[rsp]
  00792	48 8b 8c 24 b0
	00 00 00	 mov	 rcx, QWORD PTR sfdat$[rsp]
  0079a	0f b7 49 52	 movzx	 ecx, WORD PTR [rcx+82]
  0079e	48 8d 0c cd 08
	00 00 00	 lea	 rcx, QWORD PTR [rcx*8+8]
  007a6	48 3b c1	 cmp	 rax, rcx
  007a9	74 0a		 je	 SHORT $LN55@aifcReadHe

; 2626 : 				DBGFPRINTF((stderr, "\nBad size for PEAK chunk\n"));
; 2627 : 				return PSF_E_BAD_FORMAT;

  007ab	b8 f9 ff ff ff	 mov	 eax, -7
  007b0	e9 d2 05 00 00	 jmp	 $LN1@aifcReadHe
$LN55@aifcReadHe:

; 2628 : 			}
; 2629 : 			if(wavDoRead(sfdat,(char *)&version,sizeof(DWORD)))

  007b5	41 b8 04 00 00
	00		 mov	 r8d, 4
  007bb	48 8d 54 24 40	 lea	 rdx, QWORD PTR version$[rsp]
  007c0	48 8b 8c 24 b0
	00 00 00	 mov	 rcx, QWORD PTR sfdat$[rsp]
  007c8	e8 00 00 00 00	 call	 wavDoRead
  007cd	85 c0		 test	 eax, eax
  007cf	74 0a		 je	 SHORT $LN56@aifcReadHe

; 2630 : 				return PSF_E_CANT_READ;

  007d1	b8 fc ff ff ff	 mov	 eax, -4
  007d6	e9 ac 05 00 00	 jmp	 $LN1@aifcReadHe
$LN56@aifcReadHe:

; 2631 :             if(sfdat->is_little_endian)				

  007db	48 8b 84 24 b0
	00 00 00	 mov	 rax, QWORD PTR sfdat$[rsp]
  007e3	83 78 2c 00	 cmp	 DWORD PTR [rax+44], 0
  007e7	74 3d		 je	 SHORT $LN57@aifcReadHe

; 2632 : 				version  = REVDWBYTES(version);	

  007e9	8b 44 24 40	 mov	 eax, DWORD PTR version$[rsp]
  007ed	25 ff 00 00 00	 and	 eax, 255		; 000000ffH
  007f2	c1 e0 18	 shl	 eax, 24
  007f5	8b 4c 24 40	 mov	 ecx, DWORD PTR version$[rsp]
  007f9	81 e1 00 ff 00
	00		 and	 ecx, 65280		; 0000ff00H
  007ff	c1 e1 08	 shl	 ecx, 8
  00802	0b c1		 or	 eax, ecx
  00804	8b 4c 24 40	 mov	 ecx, DWORD PTR version$[rsp]
  00808	81 e1 00 00 ff
	00		 and	 ecx, 16711680		; 00ff0000H
  0080e	c1 e9 08	 shr	 ecx, 8
  00811	0b c1		 or	 eax, ecx
  00813	8b 4c 24 40	 mov	 ecx, DWORD PTR version$[rsp]
  00817	c1 e9 18	 shr	 ecx, 24
  0081a	81 e1 ff 00 00
	00		 and	 ecx, 255		; 000000ffH
  00820	0b c1		 or	 eax, ecx
  00822	89 44 24 40	 mov	 DWORD PTR version$[rsp], eax
$LN57@aifcReadHe:

; 2633 :             if(version != 1) {

  00826	83 7c 24 40 01	 cmp	 DWORD PTR version$[rsp], 1
  0082b	74 0a		 je	 SHORT $LN58@aifcReadHe

; 2634 : 				DBGFPRINTF((stderr, "Unexpected version level for PEAK chunk!\n"));
; 2635 : 				return PSF_E_UNSUPPORTED;

  0082d	b8 f8 ff ff ff	 mov	 eax, -8
  00832	e9 50 05 00 00	 jmp	 $LN1@aifcReadHe
$LN58@aifcReadHe:

; 2636 : 			}
; 2637 : 			if(fgetpos(sfdat->file,&bytepos))

  00837	48 8d 54 24 78	 lea	 rdx, QWORD PTR bytepos$[rsp]
  0083c	48 8b 84 24 b0
	00 00 00	 mov	 rax, QWORD PTR sfdat$[rsp]
  00844	48 8b 08	 mov	 rcx, QWORD PTR [rax]
  00847	e8 00 00 00 00	 call	 fgetpos
  0084c	85 c0		 test	 eax, eax
  0084e	74 0a		 je	 SHORT $LN59@aifcReadHe

; 2638 : 			    return PSF_E_CANT_SEEK;

  00850	b8 f5 ff ff ff	 mov	 eax, -11
  00855	e9 2d 05 00 00	 jmp	 $LN1@aifcReadHe
$LN59@aifcReadHe:

; 2639 : 			sfdat->peakoffset = bytepos;

  0085a	48 8b 84 24 b0
	00 00 00	 mov	 rax, QWORD PTR sfdat$[rsp]
  00862	48 8b 4c 24 78	 mov	 rcx, QWORD PTR bytepos$[rsp]
  00867	48 89 48 48	 mov	 QWORD PTR [rax+72], rcx

; 2640 :             if(wavDoRead(sfdat,(char *) &peaktime,sizeof(DWORD))){

  0086b	41 b8 04 00 00
	00		 mov	 r8d, 4
  00871	48 8d 54 24 44	 lea	 rdx, QWORD PTR peaktime$[rsp]
  00876	48 8b 8c 24 b0
	00 00 00	 mov	 rcx, QWORD PTR sfdat$[rsp]
  0087e	e8 00 00 00 00	 call	 wavDoRead
  00883	85 c0		 test	 eax, eax
  00885	74 0a		 je	 SHORT $LN60@aifcReadHe

; 2641 :                 DBGFPRINTF((stderr,"Error reading PEAK time\n"));
; 2642 : 				return PSF_E_CANT_READ;

  00887	b8 fc ff ff ff	 mov	 eax, -4
  0088c	e9 f6 04 00 00	 jmp	 $LN1@aifcReadHe
$LN60@aifcReadHe:

; 2643 :             }
; 2644 : 			if(sfdat->is_little_endian)							

  00891	48 8b 84 24 b0
	00 00 00	 mov	 rax, QWORD PTR sfdat$[rsp]
  00899	83 78 2c 00	 cmp	 DWORD PTR [rax+44], 0
  0089d	74 3d		 je	 SHORT $LN61@aifcReadHe

; 2645 : 				peaktime = REVDWBYTES(peaktime);			

  0089f	8b 44 24 44	 mov	 eax, DWORD PTR peaktime$[rsp]
  008a3	25 ff 00 00 00	 and	 eax, 255		; 000000ffH
  008a8	c1 e0 18	 shl	 eax, 24
  008ab	8b 4c 24 44	 mov	 ecx, DWORD PTR peaktime$[rsp]
  008af	81 e1 00 ff 00
	00		 and	 ecx, 65280		; 0000ff00H
  008b5	c1 e1 08	 shl	 ecx, 8
  008b8	0b c1		 or	 eax, ecx
  008ba	8b 4c 24 44	 mov	 ecx, DWORD PTR peaktime$[rsp]
  008be	81 e1 00 00 ff
	00		 and	 ecx, 16711680		; 00ff0000H
  008c4	c1 e9 08	 shr	 ecx, 8
  008c7	0b c1		 or	 eax, ecx
  008c9	8b 4c 24 44	 mov	 ecx, DWORD PTR peaktime$[rsp]
  008cd	c1 e9 18	 shr	 ecx, 24
  008d0	81 e1 ff 00 00
	00		 and	 ecx, 255		; 000000ffH
  008d6	0b c1		 or	 eax, ecx
  008d8	89 44 24 44	 mov	 DWORD PTR peaktime$[rsp], eax
$LN61@aifcReadHe:

; 2646 : 			sfdat->peaktime = (time_t) peaktime;			

  008dc	8b 44 24 44	 mov	 eax, DWORD PTR peaktime$[rsp]
  008e0	48 8b 8c 24 b0
	00 00 00	 mov	 rcx, QWORD PTR sfdat$[rsp]
  008e8	48 89 81 88 00
	00 00		 mov	 QWORD PTR [rcx+136], rax

; 2647 : 			sfdat->pPeaks = (PSF_CHPEAK *)malloc(sizeof(PSF_CHPEAK) * sfdat->fmt.Format.nChannels);

  008ef	48 8b 84 24 b0
	00 00 00	 mov	 rax, QWORD PTR sfdat$[rsp]
  008f7	0f b7 40 52	 movzx	 eax, WORD PTR [rax+82]
  008fb	48 c1 e0 03	 shl	 rax, 3
  008ff	48 8b c8	 mov	 rcx, rax
  00902	e8 00 00 00 00	 call	 malloc
  00907	48 8b 8c 24 b0
	00 00 00	 mov	 rcx, QWORD PTR sfdat$[rsp]
  0090f	48 89 81 80 00
	00 00		 mov	 QWORD PTR [rcx+128], rax

; 2648 :             if(sfdat->pPeaks==NULL) {

  00916	48 8b 84 24 b0
	00 00 00	 mov	 rax, QWORD PTR sfdat$[rsp]
  0091e	48 83 b8 80 00
	00 00 00	 cmp	 QWORD PTR [rax+128], 0
  00926	75 0a		 jne	 SHORT $LN62@aifcReadHe

; 2649 :                 DBGFPRINTF((stderr, "wavOpenWrite: no memory for peak data\n"));
; 2650 : 				return PSF_E_NOMEM;

  00928	b8 f7 ff ff ff	 mov	 eax, -9
  0092d	e9 55 04 00 00	 jmp	 $LN1@aifcReadHe
$LN62@aifcReadHe:

; 2651 :             }
; 2652 :             if(wavDoRead(sfdat,(char *)(sfdat->pPeaks),sizeof(PSF_CHPEAK) * sfdat->fmt.Format.nChannels)) {

  00932	48 8b 84 24 b0
	00 00 00	 mov	 rax, QWORD PTR sfdat$[rsp]
  0093a	0f b7 40 52	 movzx	 eax, WORD PTR [rax+82]
  0093e	48 c1 e0 03	 shl	 rax, 3
  00942	44 8b c0	 mov	 r8d, eax
  00945	48 8b 84 24 b0
	00 00 00	 mov	 rax, QWORD PTR sfdat$[rsp]
  0094d	48 8b 90 80 00
	00 00		 mov	 rdx, QWORD PTR [rax+128]
  00954	48 8b 8c 24 b0
	00 00 00	 mov	 rcx, QWORD PTR sfdat$[rsp]
  0095c	e8 00 00 00 00	 call	 wavDoRead
  00961	85 c0		 test	 eax, eax
  00963	74 0a		 je	 SHORT $LN63@aifcReadHe

; 2653 :                 DBGFPRINTF((stderr,"Error reading PEAK peak data\n"));
; 2654 : 				return PSF_E_CANT_READ;

  00965	b8 fc ff ff ff	 mov	 eax, -4
  0096a	e9 18 04 00 00	 jmp	 $LN1@aifcReadHe
$LN63@aifcReadHe:

; 2655 :             }
; 2656 : 			if(sfdat->is_little_endian){

  0096f	48 8b 84 24 b0
	00 00 00	 mov	 rax, QWORD PTR sfdat$[rsp]
  00977	83 78 2c 00	 cmp	 DWORD PTR [rax+44], 0
  0097b	0f 84 ab 00 00
	00		 je	 $LN64@aifcReadHe

; 2657 : 				DWORD *pBlock;
; 2658 : 				int i;
; 2659 : 				pBlock = (DWORD *) (sfdat->pPeaks);

  00981	48 8b 84 24 b0
	00 00 00	 mov	 rax, QWORD PTR sfdat$[rsp]
  00989	48 8b 80 80 00
	00 00		 mov	 rax, QWORD PTR [rax+128]
  00990	48 89 44 24 70	 mov	 QWORD PTR pBlock$4[rsp], rax

; 2660 : 				for(i=0;i < sfdat->fmt.Format.nChannels * 2; i++)

  00995	c7 44 24 34 00
	00 00 00	 mov	 DWORD PTR i$1[rsp], 0
  0099d	eb 0a		 jmp	 SHORT $LN10@aifcReadHe
$LN8@aifcReadHe:
  0099f	8b 44 24 34	 mov	 eax, DWORD PTR i$1[rsp]
  009a3	ff c0		 inc	 eax
  009a5	89 44 24 34	 mov	 DWORD PTR i$1[rsp], eax
$LN10@aifcReadHe:
  009a9	48 8b 84 24 b0
	00 00 00	 mov	 rax, QWORD PTR sfdat$[rsp]
  009b1	0f b7 40 52	 movzx	 eax, WORD PTR [rax+82]
  009b5	d1 e0		 shl	 eax, 1
  009b7	39 44 24 34	 cmp	 DWORD PTR i$1[rsp], eax
  009bb	7d 6f		 jge	 SHORT $LN9@aifcReadHe

; 2661 : 					pBlock[i] = REVDWBYTES(pBlock[i]); 

  009bd	48 63 44 24 34	 movsxd	 rax, DWORD PTR i$1[rsp]
  009c2	48 8b 4c 24 70	 mov	 rcx, QWORD PTR pBlock$4[rsp]
  009c7	8b 04 81	 mov	 eax, DWORD PTR [rcx+rax*4]
  009ca	25 ff 00 00 00	 and	 eax, 255		; 000000ffH
  009cf	c1 e0 18	 shl	 eax, 24
  009d2	48 63 4c 24 34	 movsxd	 rcx, DWORD PTR i$1[rsp]
  009d7	48 8b 54 24 70	 mov	 rdx, QWORD PTR pBlock$4[rsp]
  009dc	8b 0c 8a	 mov	 ecx, DWORD PTR [rdx+rcx*4]
  009df	81 e1 00 ff 00
	00		 and	 ecx, 65280		; 0000ff00H
  009e5	c1 e1 08	 shl	 ecx, 8
  009e8	0b c1		 or	 eax, ecx
  009ea	48 63 4c 24 34	 movsxd	 rcx, DWORD PTR i$1[rsp]
  009ef	48 8b 54 24 70	 mov	 rdx, QWORD PTR pBlock$4[rsp]
  009f4	8b 0c 8a	 mov	 ecx, DWORD PTR [rdx+rcx*4]
  009f7	81 e1 00 00 ff
	00		 and	 ecx, 16711680		; 00ff0000H
  009fd	c1 e9 08	 shr	 ecx, 8
  00a00	0b c1		 or	 eax, ecx
  00a02	48 63 4c 24 34	 movsxd	 rcx, DWORD PTR i$1[rsp]
  00a07	48 8b 54 24 70	 mov	 rdx, QWORD PTR pBlock$4[rsp]
  00a0c	8b 0c 8a	 mov	 ecx, DWORD PTR [rdx+rcx*4]
  00a0f	c1 e9 18	 shr	 ecx, 24
  00a12	81 e1 ff 00 00
	00		 and	 ecx, 255		; 000000ffH
  00a18	0b c1		 or	 eax, ecx
  00a1a	48 63 4c 24 34	 movsxd	 rcx, DWORD PTR i$1[rsp]
  00a1f	48 8b 54 24 70	 mov	 rdx, QWORD PTR pBlock$4[rsp]
  00a24	89 04 8a	 mov	 DWORD PTR [rdx+rcx*4], eax
  00a27	e9 73 ff ff ff	 jmp	 $LN8@aifcReadHe
$LN9@aifcReadHe:
$LN64@aifcReadHe:

; 2662 : 			}			
; 2663 : 			remain -= (size+1)&~1;

  00a2c	8b 44 24 2c	 mov	 eax, DWORD PTR size$[rsp]
  00a30	ff c0		 inc	 eax
  00a32	83 e0 fe	 and	 eax, -2			; fffffffeH
  00a35	8b 4c 24 24	 mov	 ecx, DWORD PTR remain$[rsp]
  00a39	2b c8		 sub	 ecx, eax
  00a3b	8b c1		 mov	 eax, ecx
  00a3d	89 44 24 24	 mov	 DWORD PTR remain$[rsp], eax

; 2664 : 			break;

  00a41	e9 dd 01 00 00	 jmp	 $LN4@aifcReadHe
$LN65@aifcReadHe:

; 2665 : 		case(TAG('S','S','N','D')):
; 2666 : 			if(wavDoRead(sfdat,(char *)&offset,sizeof(DWORD))
; 2667 : 					|| wavDoRead(sfdat,(char *) &blocksize,sizeof(DWORD)))

  00a46	41 b8 04 00 00
	00		 mov	 r8d, 4
  00a4c	48 8d 54 24 48	 lea	 rdx, QWORD PTR offset$[rsp]
  00a51	48 8b 8c 24 b0
	00 00 00	 mov	 rcx, QWORD PTR sfdat$[rsp]
  00a59	e8 00 00 00 00	 call	 wavDoRead
  00a5e	85 c0		 test	 eax, eax
  00a60	75 1c		 jne	 SHORT $LN67@aifcReadHe
  00a62	41 b8 04 00 00
	00		 mov	 r8d, 4
  00a68	48 8d 54 24 50	 lea	 rdx, QWORD PTR blocksize$[rsp]
  00a6d	48 8b 8c 24 b0
	00 00 00	 mov	 rcx, QWORD PTR sfdat$[rsp]
  00a75	e8 00 00 00 00	 call	 wavDoRead
  00a7a	85 c0		 test	 eax, eax
  00a7c	74 0a		 je	 SHORT $LN66@aifcReadHe
$LN67@aifcReadHe:

; 2668 : 			return PSF_E_CANT_READ;

  00a7e	b8 fc ff ff ff	 mov	 eax, -4
  00a83	e9 ff 02 00 00	 jmp	 $LN1@aifcReadHe
$LN66@aifcReadHe:

; 2669 : 			if(sfdat->is_little_endian){				

  00a88	48 8b 84 24 b0
	00 00 00	 mov	 rax, QWORD PTR sfdat$[rsp]
  00a90	83 78 2c 00	 cmp	 DWORD PTR [rax+44], 0
  00a94	74 7a		 je	 SHORT $LN68@aifcReadHe

; 2670 : 				offset  = REVDWBYTES(offset);

  00a96	8b 44 24 48	 mov	 eax, DWORD PTR offset$[rsp]
  00a9a	25 ff 00 00 00	 and	 eax, 255		; 000000ffH
  00a9f	c1 e0 18	 shl	 eax, 24
  00aa2	8b 4c 24 48	 mov	 ecx, DWORD PTR offset$[rsp]
  00aa6	81 e1 00 ff 00
	00		 and	 ecx, 65280		; 0000ff00H
  00aac	c1 e1 08	 shl	 ecx, 8
  00aaf	0b c1		 or	 eax, ecx
  00ab1	8b 4c 24 48	 mov	 ecx, DWORD PTR offset$[rsp]
  00ab5	81 e1 00 00 ff
	00		 and	 ecx, 16711680		; 00ff0000H
  00abb	c1 e9 08	 shr	 ecx, 8
  00abe	0b c1		 or	 eax, ecx
  00ac0	8b 4c 24 48	 mov	 ecx, DWORD PTR offset$[rsp]
  00ac4	c1 e9 18	 shr	 ecx, 24
  00ac7	81 e1 ff 00 00
	00		 and	 ecx, 255		; 000000ffH
  00acd	0b c1		 or	 eax, ecx
  00acf	89 44 24 48	 mov	 DWORD PTR offset$[rsp], eax

; 2671 : 				blocksize = REVDWBYTES(blocksize);

  00ad3	8b 44 24 50	 mov	 eax, DWORD PTR blocksize$[rsp]
  00ad7	25 ff 00 00 00	 and	 eax, 255		; 000000ffH
  00adc	c1 e0 18	 shl	 eax, 24
  00adf	8b 4c 24 50	 mov	 ecx, DWORD PTR blocksize$[rsp]
  00ae3	81 e1 00 ff 00
	00		 and	 ecx, 65280		; 0000ff00H
  00ae9	c1 e1 08	 shl	 ecx, 8
  00aec	0b c1		 or	 eax, ecx
  00aee	8b 4c 24 50	 mov	 ecx, DWORD PTR blocksize$[rsp]
  00af2	81 e1 00 00 ff
	00		 and	 ecx, 16711680		; 00ff0000H
  00af8	c1 e9 08	 shr	 ecx, 8
  00afb	0b c1		 or	 eax, ecx
  00afd	8b 4c 24 50	 mov	 ecx, DWORD PTR blocksize$[rsp]
  00b01	c1 e9 18	 shr	 ecx, 24
  00b04	81 e1 ff 00 00
	00		 and	 ecx, 255		; 000000ffH
  00b0a	0b c1		 or	 eax, ecx
  00b0c	89 44 24 50	 mov	 DWORD PTR blocksize$[rsp], eax
$LN68@aifcReadHe:

; 2672 : 			}
; 2673 : 			if(fgetpos(sfdat->file,&bytepos))

  00b10	48 8d 54 24 78	 lea	 rdx, QWORD PTR bytepos$[rsp]
  00b15	48 8b 84 24 b0
	00 00 00	 mov	 rax, QWORD PTR sfdat$[rsp]
  00b1d	48 8b 08	 mov	 rcx, QWORD PTR [rax]
  00b20	e8 00 00 00 00	 call	 fgetpos
  00b25	85 c0		 test	 eax, eax
  00b27	74 0a		 je	 SHORT $LN69@aifcReadHe

; 2674 : 			    return PSF_E_CANT_SEEK;

  00b29	b8 f5 ff ff ff	 mov	 eax, -11
  00b2e	e9 54 02 00 00	 jmp	 $LN1@aifcReadHe
$LN69@aifcReadHe:

; 2675 : 			sfdat->dataoffset = bytepos;

  00b33	48 8b 84 24 b0
	00 00 00	 mov	 rax, QWORD PTR sfdat$[rsp]
  00b3b	48 8b 4c 24 78	 mov	 rcx, QWORD PTR bytepos$[rsp]
  00b40	48 89 48 38	 mov	 QWORD PTR [rax+56], rcx

; 2676 : 			POS64(sfdat->dataoffset) += offset;

  00b44	8b 44 24 48	 mov	 eax, DWORD PTR offset$[rsp]
  00b48	48 8b 8c 24 b0
	00 00 00	 mov	 rcx, QWORD PTR sfdat$[rsp]
  00b50	48 03 41 38	 add	 rax, QWORD PTR [rcx+56]
  00b54	48 8b 8c 24 b0
	00 00 00	 mov	 rcx, QWORD PTR sfdat$[rsp]
  00b5c	48 89 41 38	 mov	 QWORD PTR [rcx+56], rax

; 2677 : 			sfdat->nFrames = (size - 2* sizeof(DWORD))/ sfdat->fmt.Format.nBlockAlign;			

  00b60	8b 44 24 2c	 mov	 eax, DWORD PTR size$[rsp]
  00b64	48 83 e8 08	 sub	 rax, 8
  00b68	48 8b 8c 24 b0
	00 00 00	 mov	 rcx, QWORD PTR sfdat$[rsp]
  00b70	0f b7 49 5c	 movzx	 ecx, WORD PTR [rcx+92]
  00b74	33 d2		 xor	 edx, edx
  00b76	48 f7 f1	 div	 rcx
  00b79	48 8b 8c 24 b0
	00 00 00	 mov	 rcx, QWORD PTR sfdat$[rsp]
  00b81	89 41 14	 mov	 DWORD PTR [rcx+20], eax

; 2678 : 			if(fseek(sfdat->file,((size - 2* sizeof(DWORD))+1)&~1,SEEK_CUR))

  00b84	8b 44 24 2c	 mov	 eax, DWORD PTR size$[rsp]
  00b88	48 83 e8 07	 sub	 rax, 7
  00b8c	48 83 e0 fe	 and	 rax, -2
  00b90	41 b8 01 00 00
	00		 mov	 r8d, 1
  00b96	8b d0		 mov	 edx, eax
  00b98	48 8b 84 24 b0
	00 00 00	 mov	 rax, QWORD PTR sfdat$[rsp]
  00ba0	48 8b 08	 mov	 rcx, QWORD PTR [rax]
  00ba3	e8 00 00 00 00	 call	 fseek
  00ba8	85 c0		 test	 eax, eax
  00baa	74 0a		 je	 SHORT $LN70@aifcReadHe

; 2679 : 				return PSF_E_CANT_SEEK;

  00bac	b8 f5 ff ff ff	 mov	 eax, -11
  00bb1	e9 d1 01 00 00	 jmp	 $LN1@aifcReadHe
$LN70@aifcReadHe:

; 2680 : 			have_ssnd = 1;

  00bb6	c7 44 24 64 01
	00 00 00	 mov	 DWORD PTR have_ssnd$[rsp], 1

; 2681 : 			remain -= (size+1)&~1;

  00bbe	8b 44 24 2c	 mov	 eax, DWORD PTR size$[rsp]
  00bc2	ff c0		 inc	 eax
  00bc4	83 e0 fe	 and	 eax, -2			; fffffffeH
  00bc7	8b 4c 24 24	 mov	 ecx, DWORD PTR remain$[rsp]
  00bcb	2b c8		 sub	 ecx, eax
  00bcd	8b c1		 mov	 eax, ecx
  00bcf	89 44 24 24	 mov	 DWORD PTR remain$[rsp], eax

; 2682 : 			break;

  00bd3	eb 4e		 jmp	 SHORT $LN4@aifcReadHe
$LN71@aifcReadHe:

; 2683 : 		/* HARSH! as above */
; 2684 : 		case(0):
; 2685 : 			DBGFPRINTF((stderr, "AIFC file has bad main chunksize\n"));
; 2686 : 			return PSF_E_BAD_FORMAT;

  00bd5	b8 f9 ff ff ff	 mov	 eax, -7
  00bda	e9 a8 01 00 00	 jmp	 $LN1@aifcReadHe
$LN72@aifcReadHe:

; 2687 : 		default:
; 2688 : 			/* skip all unknown chunks */
; 2689 : 			if(fseek(sfdat->file,(size+1)&~1,SEEK_CUR))

  00bdf	8b 44 24 2c	 mov	 eax, DWORD PTR size$[rsp]
  00be3	ff c0		 inc	 eax
  00be5	83 e0 fe	 and	 eax, -2			; fffffffeH
  00be8	41 b8 01 00 00
	00		 mov	 r8d, 1
  00bee	8b d0		 mov	 edx, eax
  00bf0	48 8b 84 24 b0
	00 00 00	 mov	 rax, QWORD PTR sfdat$[rsp]
  00bf8	48 8b 08	 mov	 rcx, QWORD PTR [rax]
  00bfb	e8 00 00 00 00	 call	 fseek
  00c00	85 c0		 test	 eax, eax
  00c02	74 0a		 je	 SHORT $LN73@aifcReadHe

; 2690 : 				return PSF_E_CANT_SEEK;

  00c04	b8 f5 ff ff ff	 mov	 eax, -11
  00c09	e9 79 01 00 00	 jmp	 $LN1@aifcReadHe
$LN73@aifcReadHe:

; 2691 : 			remain -= (size+1)&~1;

  00c0e	8b 44 24 2c	 mov	 eax, DWORD PTR size$[rsp]
  00c12	ff c0		 inc	 eax
  00c14	83 e0 fe	 and	 eax, -2			; fffffffeH
  00c17	8b 4c 24 24	 mov	 ecx, DWORD PTR remain$[rsp]
  00c1b	2b c8		 sub	 ecx, eax
  00c1d	8b c1		 mov	 eax, ecx
  00c1f	89 44 24 24	 mov	 DWORD PTR remain$[rsp], eax
$LN4@aifcReadHe:

; 2692 : 			break;
; 2693 : 		}
; 2694 : 	}

  00c23	e9 a0 f5 ff ff	 jmp	 $LN2@aifcReadHe
$LN3@aifcReadHe:

; 2695 : 	if(!(have_ssnd && have_comm && have_fver)){

  00c28	83 7c 24 64 00	 cmp	 DWORD PTR have_ssnd$[rsp], 0
  00c2d	74 0e		 je	 SHORT $LN75@aifcReadHe
  00c2f	83 7c 24 60 00	 cmp	 DWORD PTR have_comm$[rsp], 0
  00c34	74 07		 je	 SHORT $LN75@aifcReadHe
  00c36	83 7c 24 68 00	 cmp	 DWORD PTR have_fver$[rsp], 0
  00c3b	75 0a		 jne	 SHORT $LN74@aifcReadHe
$LN75@aifcReadHe:

; 2696 : 		DBGFPRINTF((stderr, "AIFC file has bad format\n"));
; 2697 : 		return PSF_E_BAD_FORMAT;

  00c3d	b8 f9 ff ff ff	 mov	 eax, -7
  00c42	e9 40 01 00 00	 jmp	 $LN1@aifcReadHe
$LN74@aifcReadHe:

; 2698 : 	}
; 2699 : 	/* we have seeked (ugh) to EOF, so rewind to start of data */
; 2700 : 	if(fsetpos(sfdat->file,&sfdat->dataoffset))

  00c47	48 8b 84 24 b0
	00 00 00	 mov	 rax, QWORD PTR sfdat$[rsp]
  00c4f	48 83 c0 38	 add	 rax, 56			; 00000038H
  00c53	48 8b d0	 mov	 rdx, rax
  00c56	48 8b 84 24 b0
	00 00 00	 mov	 rax, QWORD PTR sfdat$[rsp]
  00c5e	48 8b 08	 mov	 rcx, QWORD PTR [rax]
  00c61	e8 00 00 00 00	 call	 fsetpos
  00c66	85 c0		 test	 eax, eax
  00c68	74 0a		 je	 SHORT $LN76@aifcReadHe

; 2701 : 		return PSF_E_CANT_SEEK;			

  00c6a	b8 f5 ff ff ff	 mov	 eax, -11
  00c6f	e9 13 01 00 00	 jmp	 $LN1@aifcReadHe
$LN76@aifcReadHe:

; 2702 : 	sfdat->curframepos = 0;	

  00c74	48 8b 84 24 b0
	00 00 00	 mov	 rax, QWORD PTR sfdat$[rsp]
  00c7c	c7 40 10 00 00
	00 00		 mov	 DWORD PTR [rax+16], 0

; 2703 : 	sfdat->riff_format = PSF_AIFC;

  00c83	48 8b 84 24 b0
	00 00 00	 mov	 rax, QWORD PTR sfdat$[rsp]
  00c8b	c7 40 28 04 00
	00 00		 mov	 DWORD PTR [rax+40], 4

; 2704 : 	/* get rescale factor if available */
; 2705 : 	/* NB in correct format, val is always >= 0.0 */
; 2706 : 	if(sfdat->pPeaks &&  POS64(sfdat->peakoffset) != 0){

  00c92	48 8b 84 24 b0
	00 00 00	 mov	 rax, QWORD PTR sfdat$[rsp]
  00c9a	48 83 b8 80 00
	00 00 00	 cmp	 QWORD PTR [rax+128], 0
  00ca2	0f 84 cb 00 00
	00		 je	 $LN77@aifcReadHe
  00ca8	48 8b 84 24 b0
	00 00 00	 mov	 rax, QWORD PTR sfdat$[rsp]
  00cb0	48 83 78 48 00	 cmp	 QWORD PTR [rax+72], 0
  00cb5	0f 84 b8 00 00
	00		 je	 $LN77@aifcReadHe

; 2707 : 		float fac = 0.0f;

  00cbb	0f 57 c0	 xorps	 xmm0, xmm0
  00cbe	f3 0f 11 44 24
	58		 movss	 DWORD PTR fac$3[rsp], xmm0

; 2708 : 		int i;
; 2709 : 		for(i=0;i < sfdat->fmt.Format.nChannels; i++)

  00cc4	c7 44 24 54 00
	00 00 00	 mov	 DWORD PTR i$2[rsp], 0
  00ccc	eb 0a		 jmp	 SHORT $LN13@aifcReadHe
$LN11@aifcReadHe:
  00cce	8b 44 24 54	 mov	 eax, DWORD PTR i$2[rsp]
  00cd2	ff c0		 inc	 eax
  00cd4	89 44 24 54	 mov	 DWORD PTR i$2[rsp], eax
$LN13@aifcReadHe:
  00cd8	48 8b 84 24 b0
	00 00 00	 mov	 rax, QWORD PTR sfdat$[rsp]
  00ce0	0f b7 40 52	 movzx	 eax, WORD PTR [rax+82]
  00ce4	39 44 24 54	 cmp	 DWORD PTR i$2[rsp], eax
  00ce8	7d 5f		 jge	 SHORT $LN12@aifcReadHe

; 2710 : 			fac = max(fac,sfdat->pPeaks[i].val);

  00cea	48 63 44 24 54	 movsxd	 rax, DWORD PTR i$2[rsp]
  00cef	48 8b 8c 24 b0
	00 00 00	 mov	 rcx, QWORD PTR sfdat$[rsp]
  00cf7	48 8b 89 80 00
	00 00		 mov	 rcx, QWORD PTR [rcx+128]
  00cfe	f3 0f 10 04 c1	 movss	 xmm0, DWORD PTR [rcx+rax*8]
  00d03	f3 0f 10 4c 24
	58		 movss	 xmm1, DWORD PTR fac$3[rsp]
  00d09	0f 2f c8	 comiss	 xmm1, xmm0
  00d0c	76 0e		 jbe	 SHORT $LN80@aifcReadHe
  00d0e	f3 0f 10 44 24
	58		 movss	 xmm0, DWORD PTR fac$3[rsp]
  00d14	f3 0f 11 44 24
	6c		 movss	 DWORD PTR tv570[rsp], xmm0
  00d1a	eb 1f		 jmp	 SHORT $LN81@aifcReadHe
$LN80@aifcReadHe:
  00d1c	48 63 44 24 54	 movsxd	 rax, DWORD PTR i$2[rsp]
  00d21	48 8b 8c 24 b0
	00 00 00	 mov	 rcx, QWORD PTR sfdat$[rsp]
  00d29	48 8b 89 80 00
	00 00		 mov	 rcx, QWORD PTR [rcx+128]
  00d30	f3 0f 10 04 c1	 movss	 xmm0, DWORD PTR [rcx+rax*8]
  00d35	f3 0f 11 44 24
	6c		 movss	 DWORD PTR tv570[rsp], xmm0
$LN81@aifcReadHe:
  00d3b	f3 0f 10 44 24
	6c		 movss	 xmm0, DWORD PTR tv570[rsp]
  00d41	f3 0f 11 44 24
	58		 movss	 DWORD PTR fac$3[rsp], xmm0
  00d47	eb 85		 jmp	 SHORT $LN11@aifcReadHe
$LN12@aifcReadHe:

; 2711 : 		if(fac > 1.0f)

  00d49	f3 0f 10 44 24
	58		 movss	 xmm0, DWORD PTR fac$3[rsp]
  00d4f	0f 2f 05 00 00
	00 00		 comiss	 xmm0, DWORD PTR __real@3f800000
  00d56	76 1b		 jbe	 SHORT $LN78@aifcReadHe

; 2712 : 			sfdat->rescale_fac = 1.0f / fac;

  00d58	f3 0f 10 05 00
	00 00 00	 movss	 xmm0, DWORD PTR __real@3f800000
  00d60	f3 0f 5e 44 24
	58		 divss	 xmm0, DWORD PTR fac$3[rsp]
  00d66	48 8b 84 24 b0
	00 00 00	 mov	 rax, QWORD PTR sfdat$[rsp]
  00d6e	f3 0f 11 40 24	 movss	 DWORD PTR [rax+36], xmm0
$LN78@aifcReadHe:
$LN77@aifcReadHe:

; 2713 : 	}
; 2714 : 	sfdat->lastop  = PSF_OP_READ;

  00d73	48 8b 84 24 b0
	00 00 00	 mov	 rax, QWORD PTR sfdat$[rsp]
  00d7b	c7 80 98 00 00
	00 00 00 00 00	 mov	 DWORD PTR [rax+152], 0

; 2715 : 	return PSF_E_NOERROR;

  00d85	33 c0		 xor	 eax, eax
$LN1@aifcReadHe:

; 2716 : }

  00d87	48 8b 8c 24 90
	00 00 00	 mov	 rcx, QWORD PTR __$ArrayPad$[rsp]
  00d8f	48 33 cc	 xor	 rcx, rsp
  00d92	e8 00 00 00 00	 call	 __security_check_cookie
  00d97	48 81 c4 a8 00
	00 00		 add	 rsp, 168		; 000000a8H
  00d9e	c3		 ret	 0
aifcReadHeader ENDP
_TEXT	ENDS
; Function compile flags: /Odtp
; File k:\audio\editing\current\programming\the_audio_programming_book\test_code\misc\psfmaster\portsf\portsf.c
_TEXT	SEGMENT
tag$ = 32
wData$ = 36
remain$ = 40
size$ = 44
i$1 = 48
dwData$ = 52
version$ = 56
peaktime$ = 60
offset$ = 64
blocksize$ = 68
i$2 = 72
fac$3 = 76
tv192 = 80
tv263 = 84
have_comm$ = 88
have_ssnd$ = 92
tv500 = 96
pBlock$4 = 104
bytepos$ = 112
ieee$ = 120
__$ArrayPad$ = 136
sfdat$ = 160
aiffReadHeader PROC

; 2289 : {

  00000	48 89 4c 24 08	 mov	 QWORD PTR [rsp+8], rcx
  00005	48 81 ec 98 00
	00 00		 sub	 rsp, 152		; 00000098H
  0000c	48 8b 05 00 00
	00 00		 mov	 rax, QWORD PTR __security_cookie
  00013	48 33 c4	 xor	 rax, rsp
  00016	48 89 84 24 88
	00 00 00	 mov	 QWORD PTR __$ArrayPad$[rsp], rax

; 2290 : 	DWORD tag,version,peaktime,remain,offset,blocksize;
; 2291 : 	int have_comm =0,have_ssnd =0;	

  0001e	c7 44 24 58 00
	00 00 00	 mov	 DWORD PTR have_comm$[rsp], 0
  00026	c7 44 24 5c 00
	00 00 00	 mov	 DWORD PTR have_ssnd$[rsp], 0

; 2292 : 	DWORD dwData,size;
; 2293 : 	unsigned char ieee[10];
; 2294 : 	WORD wData;
; 2295 : 	fpos_t bytepos;
; 2296 : 
; 2297 : 	if(sfdat==NULL || sfdat->file == NULL)

  0002e	48 83 bc 24 a0
	00 00 00 00	 cmp	 QWORD PTR sfdat$[rsp], 0
  00037	74 0e		 je	 SHORT $LN15@aiffReadHe
  00039	48 8b 84 24 a0
	00 00 00	 mov	 rax, QWORD PTR sfdat$[rsp]
  00041	48 83 38 00	 cmp	 QWORD PTR [rax], 0
  00045	75 0a		 jne	 SHORT $LN14@aiffReadHe
$LN15@aiffReadHe:

; 2298 : 		return PSF_E_BADARG;

  00047	b8 f6 ff ff ff	 mov	 eax, -10
  0004c	e9 34 0b 00 00	 jmp	 $LN1@aiffReadHe
$LN14@aiffReadHe:

; 2299 : 
; 2300 : 	if(wavDoRead(sfdat,(char *)&tag,sizeof(DWORD))
; 2301 : 		|| wavDoRead(sfdat,(char *) &remain,sizeof(DWORD)))

  00051	41 b8 04 00 00
	00		 mov	 r8d, 4
  00057	48 8d 54 24 20	 lea	 rdx, QWORD PTR tag$[rsp]
  0005c	48 8b 8c 24 a0
	00 00 00	 mov	 rcx, QWORD PTR sfdat$[rsp]
  00064	e8 00 00 00 00	 call	 wavDoRead
  00069	85 c0		 test	 eax, eax
  0006b	75 1c		 jne	 SHORT $LN17@aiffReadHe
  0006d	41 b8 04 00 00
	00		 mov	 r8d, 4
  00073	48 8d 54 24 28	 lea	 rdx, QWORD PTR remain$[rsp]
  00078	48 8b 8c 24 a0
	00 00 00	 mov	 rcx, QWORD PTR sfdat$[rsp]
  00080	e8 00 00 00 00	 call	 wavDoRead
  00085	85 c0		 test	 eax, eax
  00087	74 0a		 je	 SHORT $LN16@aiffReadHe
$LN17@aiffReadHe:

; 2302 : 		return PSF_E_CANT_READ;

  00089	b8 fc ff ff ff	 mov	 eax, -4
  0008e	e9 f2 0a 00 00	 jmp	 $LN1@aiffReadHe
$LN16@aiffReadHe:

; 2303 : 	if(sfdat->is_little_endian) {

  00093	48 8b 84 24 a0
	00 00 00	 mov	 rax, QWORD PTR sfdat$[rsp]
  0009b	83 78 2c 00	 cmp	 DWORD PTR [rax+44], 0
  0009f	74 7a		 je	 SHORT $LN18@aiffReadHe

; 2304 : 		remain = REVDWBYTES(remain);	

  000a1	8b 44 24 28	 mov	 eax, DWORD PTR remain$[rsp]
  000a5	25 ff 00 00 00	 and	 eax, 255		; 000000ffH
  000aa	c1 e0 18	 shl	 eax, 24
  000ad	8b 4c 24 28	 mov	 ecx, DWORD PTR remain$[rsp]
  000b1	81 e1 00 ff 00
	00		 and	 ecx, 65280		; 0000ff00H
  000b7	c1 e1 08	 shl	 ecx, 8
  000ba	0b c1		 or	 eax, ecx
  000bc	8b 4c 24 28	 mov	 ecx, DWORD PTR remain$[rsp]
  000c0	81 e1 00 00 ff
	00		 and	 ecx, 16711680		; 00ff0000H
  000c6	c1 e9 08	 shr	 ecx, 8
  000c9	0b c1		 or	 eax, ecx
  000cb	8b 4c 24 28	 mov	 ecx, DWORD PTR remain$[rsp]
  000cf	c1 e9 18	 shr	 ecx, 24
  000d2	81 e1 ff 00 00
	00		 and	 ecx, 255		; 000000ffH
  000d8	0b c1		 or	 eax, ecx
  000da	89 44 24 28	 mov	 DWORD PTR remain$[rsp], eax

; 2305 : 		tag = REVDWBYTES(tag);

  000de	8b 44 24 20	 mov	 eax, DWORD PTR tag$[rsp]
  000e2	25 ff 00 00 00	 and	 eax, 255		; 000000ffH
  000e7	c1 e0 18	 shl	 eax, 24
  000ea	8b 4c 24 20	 mov	 ecx, DWORD PTR tag$[rsp]
  000ee	81 e1 00 ff 00
	00		 and	 ecx, 65280		; 0000ff00H
  000f4	c1 e1 08	 shl	 ecx, 8
  000f7	0b c1		 or	 eax, ecx
  000f9	8b 4c 24 20	 mov	 ecx, DWORD PTR tag$[rsp]
  000fd	81 e1 00 00 ff
	00		 and	 ecx, 16711680		; 00ff0000H
  00103	c1 e9 08	 shr	 ecx, 8
  00106	0b c1		 or	 eax, ecx
  00108	8b 4c 24 20	 mov	 ecx, DWORD PTR tag$[rsp]
  0010c	c1 e9 18	 shr	 ecx, 24
  0010f	81 e1 ff 00 00
	00		 and	 ecx, 255		; 000000ffH
  00115	0b c1		 or	 eax, ecx
  00117	89 44 24 20	 mov	 DWORD PTR tag$[rsp], eax
$LN18@aiffReadHe:

; 2306 : 	}
; 2307 : 	if(tag != TAG('F','O','R','M')){

  0011b	81 7c 24 20 4d
	52 4f 46	 cmp	 DWORD PTR tag$[rsp], 1179603533 ; 464f524dH
  00123	74 0a		 je	 SHORT $LN19@aiffReadHe

; 2308 : 		DBGFPRINTF((stderr, "file is not AIFF: no PSF chunk\n"));
; 2309 : 		return PSF_E_BADARG;

  00125	b8 f6 ff ff ff	 mov	 eax, -10
  0012a	e9 56 0a 00 00	 jmp	 $LN1@aiffReadHe
$LN19@aiffReadHe:

; 2310 : 	}
; 2311 : 		
; 2312 : 	if(wavDoRead(sfdat,(char *)&tag,sizeof(DWORD)))

  0012f	41 b8 04 00 00
	00		 mov	 r8d, 4
  00135	48 8d 54 24 20	 lea	 rdx, QWORD PTR tag$[rsp]
  0013a	48 8b 8c 24 a0
	00 00 00	 mov	 rcx, QWORD PTR sfdat$[rsp]
  00142	e8 00 00 00 00	 call	 wavDoRead
  00147	85 c0		 test	 eax, eax
  00149	74 0a		 je	 SHORT $LN20@aiffReadHe

; 2313 : 		return PSF_E_CANT_READ;

  0014b	b8 fc ff ff ff	 mov	 eax, -4
  00150	e9 30 0a 00 00	 jmp	 $LN1@aiffReadHe
$LN20@aiffReadHe:

; 2314 : 	if(sfdat->is_little_endian)

  00155	48 8b 84 24 a0
	00 00 00	 mov	 rax, QWORD PTR sfdat$[rsp]
  0015d	83 78 2c 00	 cmp	 DWORD PTR [rax+44], 0
  00161	74 3d		 je	 SHORT $LN21@aiffReadHe

; 2315 : 		tag = REVDWBYTES(tag);

  00163	8b 44 24 20	 mov	 eax, DWORD PTR tag$[rsp]
  00167	25 ff 00 00 00	 and	 eax, 255		; 000000ffH
  0016c	c1 e0 18	 shl	 eax, 24
  0016f	8b 4c 24 20	 mov	 ecx, DWORD PTR tag$[rsp]
  00173	81 e1 00 ff 00
	00		 and	 ecx, 65280		; 0000ff00H
  00179	c1 e1 08	 shl	 ecx, 8
  0017c	0b c1		 or	 eax, ecx
  0017e	8b 4c 24 20	 mov	 ecx, DWORD PTR tag$[rsp]
  00182	81 e1 00 00 ff
	00		 and	 ecx, 16711680		; 00ff0000H
  00188	c1 e9 08	 shr	 ecx, 8
  0018b	0b c1		 or	 eax, ecx
  0018d	8b 4c 24 20	 mov	 ecx, DWORD PTR tag$[rsp]
  00191	c1 e9 18	 shr	 ecx, 24
  00194	81 e1 ff 00 00
	00		 and	 ecx, 255		; 000000ffH
  0019a	0b c1		 or	 eax, ecx
  0019c	89 44 24 20	 mov	 DWORD PTR tag$[rsp], eax
$LN21@aiffReadHe:

; 2316 : 	if(tag != TAG('A','I','F','F')){

  001a0	81 7c 24 20 46
	46 49 41	 cmp	 DWORD PTR tag$[rsp], 1095321158 ; 41494646H
  001a8	74 0a		 je	 SHORT $LN22@aiffReadHe

; 2317 : 		DBGFPRINTF((stderr, "file is not AIFF: no AIFF chunk\n"));
; 2318 : 		return PSF_E_BADARG;

  001aa	b8 f6 ff ff ff	 mov	 eax, -10
  001af	e9 d1 09 00 00	 jmp	 $LN1@aiffReadHe
$LN22@aiffReadHe:

; 2319 : 	}
; 2320 : 	remain -= sizeof(int);

  001b4	8b 44 24 28	 mov	 eax, DWORD PTR remain$[rsp]
  001b8	48 83 e8 04	 sub	 rax, 4
  001bc	89 44 24 28	 mov	 DWORD PTR remain$[rsp], eax
$LN2@aiffReadHe:

; 2321 : 
; 2322 : 
; 2323 : 	while(remain > 0){

  001c0	83 7c 24 28 00	 cmp	 DWORD PTR remain$[rsp], 0
  001c5	0f 86 62 08 00
	00		 jbe	 $LN3@aiffReadHe

; 2324 : 		if(wavDoRead(sfdat,(char *)&tag,sizeof(DWORD))
; 2325 : 		|| wavDoRead(sfdat,(char *) &size,sizeof(DWORD)))

  001cb	41 b8 04 00 00
	00		 mov	 r8d, 4
  001d1	48 8d 54 24 20	 lea	 rdx, QWORD PTR tag$[rsp]
  001d6	48 8b 8c 24 a0
	00 00 00	 mov	 rcx, QWORD PTR sfdat$[rsp]
  001de	e8 00 00 00 00	 call	 wavDoRead
  001e3	85 c0		 test	 eax, eax
  001e5	75 1c		 jne	 SHORT $LN24@aiffReadHe
  001e7	41 b8 04 00 00
	00		 mov	 r8d, 4
  001ed	48 8d 54 24 2c	 lea	 rdx, QWORD PTR size$[rsp]
  001f2	48 8b 8c 24 a0
	00 00 00	 mov	 rcx, QWORD PTR sfdat$[rsp]
  001fa	e8 00 00 00 00	 call	 wavDoRead
  001ff	85 c0		 test	 eax, eax
  00201	74 0a		 je	 SHORT $LN23@aiffReadHe
$LN24@aiffReadHe:

; 2326 : 			return PSF_E_CANT_READ;

  00203	b8 fc ff ff ff	 mov	 eax, -4
  00208	e9 78 09 00 00	 jmp	 $LN1@aiffReadHe
$LN23@aiffReadHe:

; 2327 : 		if(sfdat->is_little_endian) {

  0020d	48 8b 84 24 a0
	00 00 00	 mov	 rax, QWORD PTR sfdat$[rsp]
  00215	83 78 2c 00	 cmp	 DWORD PTR [rax+44], 0
  00219	74 7a		 je	 SHORT $LN25@aiffReadHe

; 2328 : 			size = REVDWBYTES(size);	

  0021b	8b 44 24 2c	 mov	 eax, DWORD PTR size$[rsp]
  0021f	25 ff 00 00 00	 and	 eax, 255		; 000000ffH
  00224	c1 e0 18	 shl	 eax, 24
  00227	8b 4c 24 2c	 mov	 ecx, DWORD PTR size$[rsp]
  0022b	81 e1 00 ff 00
	00		 and	 ecx, 65280		; 0000ff00H
  00231	c1 e1 08	 shl	 ecx, 8
  00234	0b c1		 or	 eax, ecx
  00236	8b 4c 24 2c	 mov	 ecx, DWORD PTR size$[rsp]
  0023a	81 e1 00 00 ff
	00		 and	 ecx, 16711680		; 00ff0000H
  00240	c1 e9 08	 shr	 ecx, 8
  00243	0b c1		 or	 eax, ecx
  00245	8b 4c 24 2c	 mov	 ecx, DWORD PTR size$[rsp]
  00249	c1 e9 18	 shr	 ecx, 24
  0024c	81 e1 ff 00 00
	00		 and	 ecx, 255		; 000000ffH
  00252	0b c1		 or	 eax, ecx
  00254	89 44 24 2c	 mov	 DWORD PTR size$[rsp], eax

; 2329 : 			tag = REVDWBYTES(tag);

  00258	8b 44 24 20	 mov	 eax, DWORD PTR tag$[rsp]
  0025c	25 ff 00 00 00	 and	 eax, 255		; 000000ffH
  00261	c1 e0 18	 shl	 eax, 24
  00264	8b 4c 24 20	 mov	 ecx, DWORD PTR tag$[rsp]
  00268	81 e1 00 ff 00
	00		 and	 ecx, 65280		; 0000ff00H
  0026e	c1 e1 08	 shl	 ecx, 8
  00271	0b c1		 or	 eax, ecx
  00273	8b 4c 24 20	 mov	 ecx, DWORD PTR tag$[rsp]
  00277	81 e1 00 00 ff
	00		 and	 ecx, 16711680		; 00ff0000H
  0027d	c1 e9 08	 shr	 ecx, 8
  00280	0b c1		 or	 eax, ecx
  00282	8b 4c 24 20	 mov	 ecx, DWORD PTR tag$[rsp]
  00286	c1 e9 18	 shr	 ecx, 24
  00289	81 e1 ff 00 00
	00		 and	 ecx, 255		; 000000ffH
  0028f	0b c1		 or	 eax, ecx
  00291	89 44 24 20	 mov	 DWORD PTR tag$[rsp], eax
$LN25@aiffReadHe:

; 2330 : 		}
; 2331 : 		remain -=(int)( 2 * sizeof(DWORD));

  00295	8b 44 24 28	 mov	 eax, DWORD PTR remain$[rsp]
  00299	83 e8 08	 sub	 eax, 8
  0029c	89 44 24 28	 mov	 DWORD PTR remain$[rsp], eax

; 2332 : 		switch(tag){

  002a0	8b 44 24 20	 mov	 eax, DWORD PTR tag$[rsp]
  002a4	89 44 24 50	 mov	 DWORD PTR tv192[rsp], eax
  002a8	83 7c 24 50 00	 cmp	 DWORD PTR tv192[rsp], 0
  002ad	0f 84 27 07 00
	00		 je	 $LN58@aiffReadHe
  002b3	81 7c 24 50 4d
	4d 4f 43	 cmp	 DWORD PTR tv192[rsp], 1129270605 ; 434f4d4dH
  002bb	74 21		 je	 SHORT $LN26@aiffReadHe
  002bd	81 7c 24 50 4b
	41 45 50	 cmp	 DWORD PTR tv192[rsp], 1346715979 ; 5045414bH
  002c5	0f 84 bc 02 00
	00		 je	 $LN40@aiffReadHe
  002cb	81 7c 24 50 44
	4e 53 53	 cmp	 DWORD PTR tv192[rsp], 1397968452 ; 53534e44H
  002d3	0f 84 72 05 00
	00		 je	 $LN52@aiffReadHe
  002d9	e9 06 07 00 00	 jmp	 $LN59@aiffReadHe
$LN26@aiffReadHe:

; 2333 : 		case(TAG('C','O','M','M')):
; 2334 : 			if(size != 18){

  002de	83 7c 24 2c 12	 cmp	 DWORD PTR size$[rsp], 18
  002e3	74 0a		 je	 SHORT $LN27@aiffReadHe

; 2335 : 				DBGFPRINTF((stderr,"AIFF file has bad size for COMM chunk\n")); 
; 2336 : 			    return PSF_E_BAD_FORMAT;

  002e5	b8 f9 ff ff ff	 mov	 eax, -7
  002ea	e9 96 08 00 00	 jmp	 $LN1@aiffReadHe
$LN27@aiffReadHe:

; 2337 : 			}
; 2338 : 			if(fgetpos(sfdat->file,&bytepos))

  002ef	48 8d 54 24 70	 lea	 rdx, QWORD PTR bytepos$[rsp]
  002f4	48 8b 84 24 a0
	00 00 00	 mov	 rax, QWORD PTR sfdat$[rsp]
  002fc	48 8b 08	 mov	 rcx, QWORD PTR [rax]
  002ff	e8 00 00 00 00	 call	 fgetpos
  00304	85 c0		 test	 eax, eax
  00306	74 0a		 je	 SHORT $LN28@aiffReadHe

; 2339 : 			    return PSF_E_CANT_SEEK;

  00308	b8 f5 ff ff ff	 mov	 eax, -11
  0030d	e9 73 08 00 00	 jmp	 $LN1@aiffReadHe
$LN28@aiffReadHe:

; 2340 : 			sfdat->fmtoffset = bytepos;

  00312	48 8b 84 24 a0
	00 00 00	 mov	 rax, QWORD PTR sfdat$[rsp]
  0031a	48 8b 4c 24 70	 mov	 rcx, QWORD PTR bytepos$[rsp]
  0031f	48 89 48 40	 mov	 QWORD PTR [rax+64], rcx

; 2341 : 			if(wavDoRead(sfdat,(char *)&wData,sizeof(WORD)))

  00323	41 b8 02 00 00
	00		 mov	 r8d, 2
  00329	48 8d 54 24 24	 lea	 rdx, QWORD PTR wData$[rsp]
  0032e	48 8b 8c 24 a0
	00 00 00	 mov	 rcx, QWORD PTR sfdat$[rsp]
  00336	e8 00 00 00 00	 call	 wavDoRead
  0033b	85 c0		 test	 eax, eax
  0033d	74 0a		 je	 SHORT $LN29@aiffReadHe

; 2342 : 				return PSF_E_CANT_READ;

  0033f	b8 fc ff ff ff	 mov	 eax, -4
  00344	e9 3c 08 00 00	 jmp	 $LN1@aiffReadHe
$LN29@aiffReadHe:

; 2343 : 			if(sfdat->is_little_endian)

  00349	48 8b 84 24 a0
	00 00 00	 mov	 rax, QWORD PTR sfdat$[rsp]
  00351	83 78 2c 00	 cmp	 DWORD PTR [rax+44], 0
  00355	74 22		 je	 SHORT $LN30@aiffReadHe

; 2344 : 				wData = (WORD) REVWBYTES(wData);

  00357	0f b7 44 24 24	 movzx	 eax, WORD PTR wData$[rsp]
  0035c	25 ff 00 00 00	 and	 eax, 255		; 000000ffH
  00361	c1 e0 08	 shl	 eax, 8
  00364	0f b7 4c 24 24	 movzx	 ecx, WORD PTR wData$[rsp]
  00369	c1 f9 08	 sar	 ecx, 8
  0036c	81 e1 ff 00 00
	00		 and	 ecx, 255		; 000000ffH
  00372	0b c1		 or	 eax, ecx
  00374	66 89 44 24 24	 mov	 WORD PTR wData$[rsp], ax
$LN30@aiffReadHe:

; 2345 : 			sfdat->fmt.Format.nChannels = wData;

  00379	48 8b 84 24 a0
	00 00 00	 mov	 rax, QWORD PTR sfdat$[rsp]
  00381	0f b7 4c 24 24	 movzx	 ecx, WORD PTR wData$[rsp]
  00386	66 89 48 52	 mov	 WORD PTR [rax+82], cx

; 2346 : 			if(wavDoRead(sfdat,(char *)&dwData,sizeof(DWORD)))

  0038a	41 b8 04 00 00
	00		 mov	 r8d, 4
  00390	48 8d 54 24 34	 lea	 rdx, QWORD PTR dwData$[rsp]
  00395	48 8b 8c 24 a0
	00 00 00	 mov	 rcx, QWORD PTR sfdat$[rsp]
  0039d	e8 00 00 00 00	 call	 wavDoRead
  003a2	85 c0		 test	 eax, eax
  003a4	74 0a		 je	 SHORT $LN31@aiffReadHe

; 2347 : 				return PSF_E_CANT_READ;

  003a6	b8 fc ff ff ff	 mov	 eax, -4
  003ab	e9 d5 07 00 00	 jmp	 $LN1@aiffReadHe
$LN31@aiffReadHe:

; 2348 : 			if(sfdat->is_little_endian)

  003b0	48 8b 84 24 a0
	00 00 00	 mov	 rax, QWORD PTR sfdat$[rsp]
  003b8	83 78 2c 00	 cmp	 DWORD PTR [rax+44], 0
  003bc	74 3d		 je	 SHORT $LN32@aiffReadHe

; 2349 : 				dwData = REVDWBYTES(dwData);

  003be	8b 44 24 34	 mov	 eax, DWORD PTR dwData$[rsp]
  003c2	25 ff 00 00 00	 and	 eax, 255		; 000000ffH
  003c7	c1 e0 18	 shl	 eax, 24
  003ca	8b 4c 24 34	 mov	 ecx, DWORD PTR dwData$[rsp]
  003ce	81 e1 00 ff 00
	00		 and	 ecx, 65280		; 0000ff00H
  003d4	c1 e1 08	 shl	 ecx, 8
  003d7	0b c1		 or	 eax, ecx
  003d9	8b 4c 24 34	 mov	 ecx, DWORD PTR dwData$[rsp]
  003dd	81 e1 00 00 ff
	00		 and	 ecx, 16711680		; 00ff0000H
  003e3	c1 e9 08	 shr	 ecx, 8
  003e6	0b c1		 or	 eax, ecx
  003e8	8b 4c 24 34	 mov	 ecx, DWORD PTR dwData$[rsp]
  003ec	c1 e9 18	 shr	 ecx, 24
  003ef	81 e1 ff 00 00
	00		 and	 ecx, 255		; 000000ffH
  003f5	0b c1		 or	 eax, ecx
  003f7	89 44 24 34	 mov	 DWORD PTR dwData$[rsp], eax
$LN32@aiffReadHe:

; 2350 : 			sfdat->nFrames = dwData;

  003fb	48 8b 84 24 a0
	00 00 00	 mov	 rax, QWORD PTR sfdat$[rsp]
  00403	8b 4c 24 34	 mov	 ecx, DWORD PTR dwData$[rsp]
  00407	89 48 14	 mov	 DWORD PTR [rax+20], ecx

; 2351 : 			if(wavDoRead(sfdat,(char *)&wData,sizeof(WORD)))

  0040a	41 b8 02 00 00
	00		 mov	 r8d, 2
  00410	48 8d 54 24 24	 lea	 rdx, QWORD PTR wData$[rsp]
  00415	48 8b 8c 24 a0
	00 00 00	 mov	 rcx, QWORD PTR sfdat$[rsp]
  0041d	e8 00 00 00 00	 call	 wavDoRead
  00422	85 c0		 test	 eax, eax
  00424	74 0a		 je	 SHORT $LN33@aiffReadHe

; 2352 : 				return PSF_E_CANT_READ;

  00426	b8 fc ff ff ff	 mov	 eax, -4
  0042b	e9 55 07 00 00	 jmp	 $LN1@aiffReadHe
$LN33@aiffReadHe:

; 2353 : 			if(sfdat->is_little_endian)

  00430	48 8b 84 24 a0
	00 00 00	 mov	 rax, QWORD PTR sfdat$[rsp]
  00438	83 78 2c 00	 cmp	 DWORD PTR [rax+44], 0
  0043c	74 22		 je	 SHORT $LN34@aiffReadHe

; 2354 : 				wData = (WORD) REVWBYTES(wData);

  0043e	0f b7 44 24 24	 movzx	 eax, WORD PTR wData$[rsp]
  00443	25 ff 00 00 00	 and	 eax, 255		; 000000ffH
  00448	c1 e0 08	 shl	 eax, 8
  0044b	0f b7 4c 24 24	 movzx	 ecx, WORD PTR wData$[rsp]
  00450	c1 f9 08	 sar	 ecx, 8
  00453	81 e1 ff 00 00
	00		 and	 ecx, 255		; 000000ffH
  00459	0b c1		 or	 eax, ecx
  0045b	66 89 44 24 24	 mov	 WORD PTR wData$[rsp], ax
$LN34@aiffReadHe:

; 2355 : 			sfdat->fmt.Format.wBitsPerSample = wData;

  00460	48 8b 84 24 a0
	00 00 00	 mov	 rax, QWORD PTR sfdat$[rsp]
  00468	0f b7 4c 24 24	 movzx	 ecx, WORD PTR wData$[rsp]
  0046d	66 89 48 5e	 mov	 WORD PTR [rax+94], cx

; 2356 : 			if(wavDoRead(sfdat,ieee,10))

  00471	41 b8 0a 00 00
	00		 mov	 r8d, 10
  00477	48 8d 54 24 78	 lea	 rdx, QWORD PTR ieee$[rsp]
  0047c	48 8b 8c 24 a0
	00 00 00	 mov	 rcx, QWORD PTR sfdat$[rsp]
  00484	e8 00 00 00 00	 call	 wavDoRead
  00489	85 c0		 test	 eax, eax
  0048b	74 0a		 je	 SHORT $LN35@aiffReadHe

; 2357 : 				return PSF_E_CANT_READ;

  0048d	b8 fc ff ff ff	 mov	 eax, -4
  00492	e9 ee 06 00 00	 jmp	 $LN1@aiffReadHe
$LN35@aiffReadHe:

; 2358 : 			sfdat->fmt.Format.nSamplesPerSec = (DWORD)(ieee_80_to_double(ieee));

  00497	48 8d 4c 24 78	 lea	 rcx, QWORD PTR ieee$[rsp]
  0049c	e8 00 00 00 00	 call	 ieee_80_to_double
  004a1	f2 48 0f 2c c0	 cvttsd2si rax, xmm0
  004a6	48 8b 8c 24 a0
	00 00 00	 mov	 rcx, QWORD PTR sfdat$[rsp]
  004ae	89 41 54	 mov	 DWORD PTR [rcx+84], eax

; 2359 : 			/*we have to deduce blockalign, and hence containersize*/
; 2360 : 			/* no support (yet) for strange wordsizes such as 20 in 24 */
; 2361 : 			switch(sfdat->fmt.Format.wBitsPerSample){

  004b1	48 8b 84 24 a0
	00 00 00	 mov	 rax, QWORD PTR sfdat$[rsp]
  004b9	0f b7 40 5e	 movzx	 eax, WORD PTR [rax+94]
  004bd	89 44 24 54	 mov	 DWORD PTR tv263[rsp], eax
  004c1	83 7c 24 54 10	 cmp	 DWORD PTR tv263[rsp], 16
  004c6	74 54		 je	 SHORT $LN38@aiffReadHe
  004c8	83 7c 24 54 18	 cmp	 DWORD PTR tv263[rsp], 24
  004cd	74 2b		 je	 SHORT $LN37@aiffReadHe
  004cf	83 7c 24 54 20	 cmp	 DWORD PTR tv263[rsp], 32 ; 00000020H
  004d4	74 02		 je	 SHORT $LN36@aiffReadHe
  004d6	eb 66		 jmp	 SHORT $LN39@aiffReadHe
$LN36@aiffReadHe:

; 2362 : 			case(32):
; 2363 : 				sfdat->fmt.Format.nBlockAlign = sizeof(int);

  004d8	b8 04 00 00 00	 mov	 eax, 4
  004dd	48 8b 8c 24 a0
	00 00 00	 mov	 rcx, QWORD PTR sfdat$[rsp]
  004e5	66 89 41 5c	 mov	 WORD PTR [rcx+92], ax

; 2364 : 				sfdat->samptype = PSF_SAMP_32;

  004e9	48 8b 84 24 a0
	00 00 00	 mov	 rax, QWORD PTR sfdat$[rsp]
  004f1	c7 40 30 04 00
	00 00		 mov	 DWORD PTR [rax+48], 4

; 2365 : 				break;			

  004f8	eb 4e		 jmp	 SHORT $LN6@aiffReadHe
$LN37@aiffReadHe:

; 2366 : 			case(24):
; 2367 : 				sfdat->fmt.Format.nBlockAlign = 3;

  004fa	b8 03 00 00 00	 mov	 eax, 3
  004ff	48 8b 8c 24 a0
	00 00 00	 mov	 rcx, QWORD PTR sfdat$[rsp]
  00507	66 89 41 5c	 mov	 WORD PTR [rcx+92], ax

; 2368 : 				sfdat->samptype = PSF_SAMP_24;

  0050b	48 8b 84 24 a0
	00 00 00	 mov	 rax, QWORD PTR sfdat$[rsp]
  00513	c7 40 30 03 00
	00 00		 mov	 DWORD PTR [rax+48], 3

; 2369 : 				break;

  0051a	eb 2c		 jmp	 SHORT $LN6@aiffReadHe
$LN38@aiffReadHe:

; 2370 : 			case(16):
; 2371 : 				sfdat->fmt.Format.nBlockAlign = sizeof(short);

  0051c	b8 02 00 00 00	 mov	 eax, 2
  00521	48 8b 8c 24 a0
	00 00 00	 mov	 rcx, QWORD PTR sfdat$[rsp]
  00529	66 89 41 5c	 mov	 WORD PTR [rcx+92], ax

; 2372 : 				sfdat->samptype = PSF_SAMP_16;

  0052d	48 8b 84 24 a0
	00 00 00	 mov	 rax, QWORD PTR sfdat$[rsp]
  00535	c7 40 30 02 00
	00 00		 mov	 DWORD PTR [rax+48], 2

; 2373 : 				break;

  0053c	eb 0a		 jmp	 SHORT $LN6@aiffReadHe
$LN39@aiffReadHe:

; 2374 : 			default:
; 2375 : 				DBGFPRINTF((stderr, "unsupported sample format for AIFF file\n"));
; 2376 : 				return PSF_E_UNSUPPORTED;

  0053e	b8 f8 ff ff ff	 mov	 eax, -8
  00543	e9 3d 06 00 00	 jmp	 $LN1@aiffReadHe
$LN6@aiffReadHe:

; 2377 : 			}
; 2378 : 			sfdat->fmt.Format.nBlockAlign = (WORD) (sfdat->fmt.Format.nBlockAlign * sfdat->fmt.Format.nChannels);

  00548	48 8b 84 24 a0
	00 00 00	 mov	 rax, QWORD PTR sfdat$[rsp]
  00550	0f b7 40 5c	 movzx	 eax, WORD PTR [rax+92]
  00554	48 8b 8c 24 a0
	00 00 00	 mov	 rcx, QWORD PTR sfdat$[rsp]
  0055c	0f b7 49 52	 movzx	 ecx, WORD PTR [rcx+82]
  00560	0f af c1	 imul	 eax, ecx
  00563	48 8b 8c 24 a0
	00 00 00	 mov	 rcx, QWORD PTR sfdat$[rsp]
  0056b	66 89 41 5c	 mov	 WORD PTR [rcx+92], ax

; 2379 : 			remain -= 18;

  0056f	8b 44 24 28	 mov	 eax, DWORD PTR remain$[rsp]
  00573	83 e8 12	 sub	 eax, 18
  00576	89 44 24 28	 mov	 DWORD PTR remain$[rsp], eax

; 2380 : 			have_comm = 1;

  0057a	c7 44 24 58 01
	00 00 00	 mov	 DWORD PTR have_comm$[rsp], 1

; 2381 : 			break;

  00582	e9 a1 04 00 00	 jmp	 $LN4@aiffReadHe
$LN40@aiffReadHe:

; 2382 : 		case (TAG('P','E','A','K')):
; 2383 : 			if(!have_comm){

  00587	83 7c 24 58 00	 cmp	 DWORD PTR have_comm$[rsp], 0
  0058c	75 0a		 jne	 SHORT $LN41@aiffReadHe

; 2384 : 				DBGFPRINTF((stderr, "AIFF file: found PEAK chunk before COMM chunk!\n"));
; 2385 : 				return PSF_E_BAD_FORMAT;

  0058e	b8 f9 ff ff ff	 mov	 eax, -7
  00593	e9 ed 05 00 00	 jmp	 $LN1@aiffReadHe
$LN41@aiffReadHe:

; 2386 : 			}
; 2387 : 			if(size != (2 * sizeof(DWORD) + sizeof(PSF_CHPEAK) * sfdat->fmt.Format.nChannels)){

  00598	8b 44 24 2c	 mov	 eax, DWORD PTR size$[rsp]
  0059c	48 8b 8c 24 a0
	00 00 00	 mov	 rcx, QWORD PTR sfdat$[rsp]
  005a4	0f b7 49 52	 movzx	 ecx, WORD PTR [rcx+82]
  005a8	48 8d 0c cd 08
	00 00 00	 lea	 rcx, QWORD PTR [rcx*8+8]
  005b0	48 3b c1	 cmp	 rax, rcx
  005b3	74 0a		 je	 SHORT $LN42@aiffReadHe

; 2388 : 				DBGFPRINTF((stderr, "AIFF file has bad size for PEAK chunk\n"));
; 2389 : 				return PSF_E_BAD_FORMAT;

  005b5	b8 f9 ff ff ff	 mov	 eax, -7
  005ba	e9 c6 05 00 00	 jmp	 $LN1@aiffReadHe
$LN42@aiffReadHe:

; 2390 : 			}
; 2391 :             if(wavDoRead(sfdat,(char *)&version,sizeof(DWORD))) {

  005bf	41 b8 04 00 00
	00		 mov	 r8d, 4
  005c5	48 8d 54 24 38	 lea	 rdx, QWORD PTR version$[rsp]
  005ca	48 8b 8c 24 a0
	00 00 00	 mov	 rcx, QWORD PTR sfdat$[rsp]
  005d2	e8 00 00 00 00	 call	 wavDoRead
  005d7	85 c0		 test	 eax, eax
  005d9	74 0a		 je	 SHORT $LN43@aiffReadHe

; 2392 :                 DBGFPRINTF((stderr,"Error reading PEAK version\n"));
; 2393 :                 return PSF_E_CANT_READ;

  005db	b8 fc ff ff ff	 mov	 eax, -4
  005e0	e9 a0 05 00 00	 jmp	 $LN1@aiffReadHe
$LN43@aiffReadHe:

; 2394 :             }
; 2395 :             if(sfdat->is_little_endian)				

  005e5	48 8b 84 24 a0
	00 00 00	 mov	 rax, QWORD PTR sfdat$[rsp]
  005ed	83 78 2c 00	 cmp	 DWORD PTR [rax+44], 0
  005f1	74 3d		 je	 SHORT $LN44@aiffReadHe

; 2396 : 				version  = REVDWBYTES(version);

  005f3	8b 44 24 38	 mov	 eax, DWORD PTR version$[rsp]
  005f7	25 ff 00 00 00	 and	 eax, 255		; 000000ffH
  005fc	c1 e0 18	 shl	 eax, 24
  005ff	8b 4c 24 38	 mov	 ecx, DWORD PTR version$[rsp]
  00603	81 e1 00 ff 00
	00		 and	 ecx, 65280		; 0000ff00H
  00609	c1 e1 08	 shl	 ecx, 8
  0060c	0b c1		 or	 eax, ecx
  0060e	8b 4c 24 38	 mov	 ecx, DWORD PTR version$[rsp]
  00612	81 e1 00 00 ff
	00		 and	 ecx, 16711680		; 00ff0000H
  00618	c1 e9 08	 shr	 ecx, 8
  0061b	0b c1		 or	 eax, ecx
  0061d	8b 4c 24 38	 mov	 ecx, DWORD PTR version$[rsp]
  00621	c1 e9 18	 shr	 ecx, 24
  00624	81 e1 ff 00 00
	00		 and	 ecx, 255		; 000000ffH
  0062a	0b c1		 or	 eax, ecx
  0062c	89 44 24 38	 mov	 DWORD PTR version$[rsp], eax
$LN44@aiffReadHe:

; 2397 :             if(version != 1){

  00630	83 7c 24 38 01	 cmp	 DWORD PTR version$[rsp], 1
  00635	74 0a		 je	 SHORT $LN45@aiffReadHe

; 2398 : 				DBGFPRINTF((stderr, "AIFF file has unexpected version level for PEAK chunk!\n"));
; 2399 : 				return PSF_E_UNSUPPORTED;

  00637	b8 f8 ff ff ff	 mov	 eax, -8
  0063c	e9 44 05 00 00	 jmp	 $LN1@aiffReadHe
$LN45@aiffReadHe:

; 2400 : 			}
; 2401 : 		    if(fgetpos(sfdat->file,&bytepos))

  00641	48 8d 54 24 70	 lea	 rdx, QWORD PTR bytepos$[rsp]
  00646	48 8b 84 24 a0
	00 00 00	 mov	 rax, QWORD PTR sfdat$[rsp]
  0064e	48 8b 08	 mov	 rcx, QWORD PTR [rax]
  00651	e8 00 00 00 00	 call	 fgetpos
  00656	85 c0		 test	 eax, eax
  00658	74 0a		 je	 SHORT $LN46@aiffReadHe

; 2402 : 			return PSF_E_CANT_SEEK;

  0065a	b8 f5 ff ff ff	 mov	 eax, -11
  0065f	e9 21 05 00 00	 jmp	 $LN1@aiffReadHe
$LN46@aiffReadHe:

; 2403 : 		    sfdat->peakoffset = bytepos;

  00664	48 8b 84 24 a0
	00 00 00	 mov	 rax, QWORD PTR sfdat$[rsp]
  0066c	48 8b 4c 24 70	 mov	 rcx, QWORD PTR bytepos$[rsp]
  00671	48 89 48 48	 mov	 QWORD PTR [rax+72], rcx

; 2404 :             if(wavDoRead(sfdat,(char *) &peaktime,sizeof(DWORD))) {

  00675	41 b8 04 00 00
	00		 mov	 r8d, 4
  0067b	48 8d 54 24 3c	 lea	 rdx, QWORD PTR peaktime$[rsp]
  00680	48 8b 8c 24 a0
	00 00 00	 mov	 rcx, QWORD PTR sfdat$[rsp]
  00688	e8 00 00 00 00	 call	 wavDoRead
  0068d	85 c0		 test	 eax, eax
  0068f	74 0a		 je	 SHORT $LN47@aiffReadHe

; 2405 :                 DBGFPRINTF((stderr,"Error reading PEAK time\n"));
; 2406 : 				return PSF_E_CANT_READ;

  00691	b8 fc ff ff ff	 mov	 eax, -4
  00696	e9 ea 04 00 00	 jmp	 $LN1@aiffReadHe
$LN47@aiffReadHe:

; 2407 :             }
; 2408 : 			if(sfdat->is_little_endian)								

  0069b	48 8b 84 24 a0
	00 00 00	 mov	 rax, QWORD PTR sfdat$[rsp]
  006a3	83 78 2c 00	 cmp	 DWORD PTR [rax+44], 0
  006a7	74 3d		 je	 SHORT $LN48@aiffReadHe

; 2409 : 				peaktime = REVDWBYTES(peaktime);						

  006a9	8b 44 24 3c	 mov	 eax, DWORD PTR peaktime$[rsp]
  006ad	25 ff 00 00 00	 and	 eax, 255		; 000000ffH
  006b2	c1 e0 18	 shl	 eax, 24
  006b5	8b 4c 24 3c	 mov	 ecx, DWORD PTR peaktime$[rsp]
  006b9	81 e1 00 ff 00
	00		 and	 ecx, 65280		; 0000ff00H
  006bf	c1 e1 08	 shl	 ecx, 8
  006c2	0b c1		 or	 eax, ecx
  006c4	8b 4c 24 3c	 mov	 ecx, DWORD PTR peaktime$[rsp]
  006c8	81 e1 00 00 ff
	00		 and	 ecx, 16711680		; 00ff0000H
  006ce	c1 e9 08	 shr	 ecx, 8
  006d1	0b c1		 or	 eax, ecx
  006d3	8b 4c 24 3c	 mov	 ecx, DWORD PTR peaktime$[rsp]
  006d7	c1 e9 18	 shr	 ecx, 24
  006da	81 e1 ff 00 00
	00		 and	 ecx, 255		; 000000ffH
  006e0	0b c1		 or	 eax, ecx
  006e2	89 44 24 3c	 mov	 DWORD PTR peaktime$[rsp], eax
$LN48@aiffReadHe:

; 2410 : 			sfdat->peaktime = (time_t) peaktime;			

  006e6	8b 44 24 3c	 mov	 eax, DWORD PTR peaktime$[rsp]
  006ea	48 8b 8c 24 a0
	00 00 00	 mov	 rcx, QWORD PTR sfdat$[rsp]
  006f2	48 89 81 88 00
	00 00		 mov	 QWORD PTR [rcx+136], rax

; 2411 : 			sfdat->pPeaks = (PSF_CHPEAK *)malloc(sizeof(PSF_CHPEAK) * sfdat->fmt.Format.nChannels);

  006f9	48 8b 84 24 a0
	00 00 00	 mov	 rax, QWORD PTR sfdat$[rsp]
  00701	0f b7 40 52	 movzx	 eax, WORD PTR [rax+82]
  00705	48 c1 e0 03	 shl	 rax, 3
  00709	48 8b c8	 mov	 rcx, rax
  0070c	e8 00 00 00 00	 call	 malloc
  00711	48 8b 8c 24 a0
	00 00 00	 mov	 rcx, QWORD PTR sfdat$[rsp]
  00719	48 89 81 80 00
	00 00		 mov	 QWORD PTR [rcx+128], rax

; 2412 :             if(sfdat->pPeaks==NULL){

  00720	48 8b 84 24 a0
	00 00 00	 mov	 rax, QWORD PTR sfdat$[rsp]
  00728	48 83 b8 80 00
	00 00 00	 cmp	 QWORD PTR [rax+128], 0
  00730	75 0a		 jne	 SHORT $LN49@aiffReadHe

; 2413 : 			    DBGFPRINTF((stderr, "wavOpenWrite: no memory for peak data\n"));
; 2414 :                 return PSF_E_NOMEM;

  00732	b8 f7 ff ff ff	 mov	 eax, -9
  00737	e9 49 04 00 00	 jmp	 $LN1@aiffReadHe
$LN49@aiffReadHe:

; 2415 :             }
; 2416 :             if(wavDoRead(sfdat,(char *)(sfdat->pPeaks),sizeof(PSF_CHPEAK) * sfdat->fmt.Format.nChannels)){

  0073c	48 8b 84 24 a0
	00 00 00	 mov	 rax, QWORD PTR sfdat$[rsp]
  00744	0f b7 40 52	 movzx	 eax, WORD PTR [rax+82]
  00748	48 c1 e0 03	 shl	 rax, 3
  0074c	44 8b c0	 mov	 r8d, eax
  0074f	48 8b 84 24 a0
	00 00 00	 mov	 rax, QWORD PTR sfdat$[rsp]
  00757	48 8b 90 80 00
	00 00		 mov	 rdx, QWORD PTR [rax+128]
  0075e	48 8b 8c 24 a0
	00 00 00	 mov	 rcx, QWORD PTR sfdat$[rsp]
  00766	e8 00 00 00 00	 call	 wavDoRead
  0076b	85 c0		 test	 eax, eax
  0076d	74 0a		 je	 SHORT $LN50@aiffReadHe

; 2417 :                 DBGFPRINTF((stderr,"Error reading PEAK peak data\n"));   
; 2418 : 				return PSF_E_CANT_READ;

  0076f	b8 fc ff ff ff	 mov	 eax, -4
  00774	e9 0c 04 00 00	 jmp	 $LN1@aiffReadHe
$LN50@aiffReadHe:

; 2419 :              }
; 2420 : 			if(sfdat->is_little_endian){

  00779	48 8b 84 24 a0
	00 00 00	 mov	 rax, QWORD PTR sfdat$[rsp]
  00781	83 78 2c 00	 cmp	 DWORD PTR [rax+44], 0
  00785	0f 84 ab 00 00
	00		 je	 $LN51@aiffReadHe

; 2421 : 				DWORD *pBlock;
; 2422 : 				int i;
; 2423 : 				pBlock = (DWORD *) (sfdat->pPeaks);

  0078b	48 8b 84 24 a0
	00 00 00	 mov	 rax, QWORD PTR sfdat$[rsp]
  00793	48 8b 80 80 00
	00 00		 mov	 rax, QWORD PTR [rax+128]
  0079a	48 89 44 24 68	 mov	 QWORD PTR pBlock$4[rsp], rax

; 2424 : 				for(i=0;i < sfdat->fmt.Format.nChannels * 2; i++)

  0079f	c7 44 24 30 00
	00 00 00	 mov	 DWORD PTR i$1[rsp], 0
  007a7	eb 0a		 jmp	 SHORT $LN10@aiffReadHe
$LN8@aiffReadHe:
  007a9	8b 44 24 30	 mov	 eax, DWORD PTR i$1[rsp]
  007ad	ff c0		 inc	 eax
  007af	89 44 24 30	 mov	 DWORD PTR i$1[rsp], eax
$LN10@aiffReadHe:
  007b3	48 8b 84 24 a0
	00 00 00	 mov	 rax, QWORD PTR sfdat$[rsp]
  007bb	0f b7 40 52	 movzx	 eax, WORD PTR [rax+82]
  007bf	d1 e0		 shl	 eax, 1
  007c1	39 44 24 30	 cmp	 DWORD PTR i$1[rsp], eax
  007c5	7d 6f		 jge	 SHORT $LN9@aiffReadHe

; 2425 : 					pBlock[i] = REVDWBYTES(pBlock[i]); 

  007c7	48 63 44 24 30	 movsxd	 rax, DWORD PTR i$1[rsp]
  007cc	48 8b 4c 24 68	 mov	 rcx, QWORD PTR pBlock$4[rsp]
  007d1	8b 04 81	 mov	 eax, DWORD PTR [rcx+rax*4]
  007d4	25 ff 00 00 00	 and	 eax, 255		; 000000ffH
  007d9	c1 e0 18	 shl	 eax, 24
  007dc	48 63 4c 24 30	 movsxd	 rcx, DWORD PTR i$1[rsp]
  007e1	48 8b 54 24 68	 mov	 rdx, QWORD PTR pBlock$4[rsp]
  007e6	8b 0c 8a	 mov	 ecx, DWORD PTR [rdx+rcx*4]
  007e9	81 e1 00 ff 00
	00		 and	 ecx, 65280		; 0000ff00H
  007ef	c1 e1 08	 shl	 ecx, 8
  007f2	0b c1		 or	 eax, ecx
  007f4	48 63 4c 24 30	 movsxd	 rcx, DWORD PTR i$1[rsp]
  007f9	48 8b 54 24 68	 mov	 rdx, QWORD PTR pBlock$4[rsp]
  007fe	8b 0c 8a	 mov	 ecx, DWORD PTR [rdx+rcx*4]
  00801	81 e1 00 00 ff
	00		 and	 ecx, 16711680		; 00ff0000H
  00807	c1 e9 08	 shr	 ecx, 8
  0080a	0b c1		 or	 eax, ecx
  0080c	48 63 4c 24 30	 movsxd	 rcx, DWORD PTR i$1[rsp]
  00811	48 8b 54 24 68	 mov	 rdx, QWORD PTR pBlock$4[rsp]
  00816	8b 0c 8a	 mov	 ecx, DWORD PTR [rdx+rcx*4]
  00819	c1 e9 18	 shr	 ecx, 24
  0081c	81 e1 ff 00 00
	00		 and	 ecx, 255		; 000000ffH
  00822	0b c1		 or	 eax, ecx
  00824	48 63 4c 24 30	 movsxd	 rcx, DWORD PTR i$1[rsp]
  00829	48 8b 54 24 68	 mov	 rdx, QWORD PTR pBlock$4[rsp]
  0082e	89 04 8a	 mov	 DWORD PTR [rdx+rcx*4], eax
  00831	e9 73 ff ff ff	 jmp	 $LN8@aiffReadHe
$LN9@aiffReadHe:
$LN51@aiffReadHe:

; 2426 : 			}			
; 2427 : 			remain -= size;

  00836	8b 44 24 2c	 mov	 eax, DWORD PTR size$[rsp]
  0083a	8b 4c 24 28	 mov	 ecx, DWORD PTR remain$[rsp]
  0083e	2b c8		 sub	 ecx, eax
  00840	8b c1		 mov	 eax, ecx
  00842	89 44 24 28	 mov	 DWORD PTR remain$[rsp], eax

; 2428 : 			break;

  00846	e9 dd 01 00 00	 jmp	 $LN4@aiffReadHe
$LN52@aiffReadHe:

; 2429 : 		case(TAG('S','S','N','D')):
; 2430 : 			if(wavDoRead(sfdat,(char *)&offset,sizeof(DWORD))
; 2431 : 					|| wavDoRead(sfdat,(char *) &blocksize,sizeof(DWORD)))

  0084b	41 b8 04 00 00
	00		 mov	 r8d, 4
  00851	48 8d 54 24 40	 lea	 rdx, QWORD PTR offset$[rsp]
  00856	48 8b 8c 24 a0
	00 00 00	 mov	 rcx, QWORD PTR sfdat$[rsp]
  0085e	e8 00 00 00 00	 call	 wavDoRead
  00863	85 c0		 test	 eax, eax
  00865	75 1c		 jne	 SHORT $LN54@aiffReadHe
  00867	41 b8 04 00 00
	00		 mov	 r8d, 4
  0086d	48 8d 54 24 44	 lea	 rdx, QWORD PTR blocksize$[rsp]
  00872	48 8b 8c 24 a0
	00 00 00	 mov	 rcx, QWORD PTR sfdat$[rsp]
  0087a	e8 00 00 00 00	 call	 wavDoRead
  0087f	85 c0		 test	 eax, eax
  00881	74 0a		 je	 SHORT $LN53@aiffReadHe
$LN54@aiffReadHe:

; 2432 : 			return PSF_E_CANT_READ;

  00883	b8 fc ff ff ff	 mov	 eax, -4
  00888	e9 f8 02 00 00	 jmp	 $LN1@aiffReadHe
$LN53@aiffReadHe:

; 2433 : 			if(sfdat->is_little_endian){				

  0088d	48 8b 84 24 a0
	00 00 00	 mov	 rax, QWORD PTR sfdat$[rsp]
  00895	83 78 2c 00	 cmp	 DWORD PTR [rax+44], 0
  00899	74 7a		 je	 SHORT $LN55@aiffReadHe

; 2434 : 				offset  = REVDWBYTES(offset);

  0089b	8b 44 24 40	 mov	 eax, DWORD PTR offset$[rsp]
  0089f	25 ff 00 00 00	 and	 eax, 255		; 000000ffH
  008a4	c1 e0 18	 shl	 eax, 24
  008a7	8b 4c 24 40	 mov	 ecx, DWORD PTR offset$[rsp]
  008ab	81 e1 00 ff 00
	00		 and	 ecx, 65280		; 0000ff00H
  008b1	c1 e1 08	 shl	 ecx, 8
  008b4	0b c1		 or	 eax, ecx
  008b6	8b 4c 24 40	 mov	 ecx, DWORD PTR offset$[rsp]
  008ba	81 e1 00 00 ff
	00		 and	 ecx, 16711680		; 00ff0000H
  008c0	c1 e9 08	 shr	 ecx, 8
  008c3	0b c1		 or	 eax, ecx
  008c5	8b 4c 24 40	 mov	 ecx, DWORD PTR offset$[rsp]
  008c9	c1 e9 18	 shr	 ecx, 24
  008cc	81 e1 ff 00 00
	00		 and	 ecx, 255		; 000000ffH
  008d2	0b c1		 or	 eax, ecx
  008d4	89 44 24 40	 mov	 DWORD PTR offset$[rsp], eax

; 2435 : 				blocksize = REVDWBYTES(blocksize);

  008d8	8b 44 24 44	 mov	 eax, DWORD PTR blocksize$[rsp]
  008dc	25 ff 00 00 00	 and	 eax, 255		; 000000ffH
  008e1	c1 e0 18	 shl	 eax, 24
  008e4	8b 4c 24 44	 mov	 ecx, DWORD PTR blocksize$[rsp]
  008e8	81 e1 00 ff 00
	00		 and	 ecx, 65280		; 0000ff00H
  008ee	c1 e1 08	 shl	 ecx, 8
  008f1	0b c1		 or	 eax, ecx
  008f3	8b 4c 24 44	 mov	 ecx, DWORD PTR blocksize$[rsp]
  008f7	81 e1 00 00 ff
	00		 and	 ecx, 16711680		; 00ff0000H
  008fd	c1 e9 08	 shr	 ecx, 8
  00900	0b c1		 or	 eax, ecx
  00902	8b 4c 24 44	 mov	 ecx, DWORD PTR blocksize$[rsp]
  00906	c1 e9 18	 shr	 ecx, 24
  00909	81 e1 ff 00 00
	00		 and	 ecx, 255		; 000000ffH
  0090f	0b c1		 or	 eax, ecx
  00911	89 44 24 44	 mov	 DWORD PTR blocksize$[rsp], eax
$LN55@aiffReadHe:

; 2436 : 			}
; 2437 : 			if(fgetpos(sfdat->file,&bytepos))

  00915	48 8d 54 24 70	 lea	 rdx, QWORD PTR bytepos$[rsp]
  0091a	48 8b 84 24 a0
	00 00 00	 mov	 rax, QWORD PTR sfdat$[rsp]
  00922	48 8b 08	 mov	 rcx, QWORD PTR [rax]
  00925	e8 00 00 00 00	 call	 fgetpos
  0092a	85 c0		 test	 eax, eax
  0092c	74 0a		 je	 SHORT $LN56@aiffReadHe

; 2438 : 			    return PSF_E_CANT_SEEK;

  0092e	b8 f5 ff ff ff	 mov	 eax, -11
  00933	e9 4d 02 00 00	 jmp	 $LN1@aiffReadHe
$LN56@aiffReadHe:

; 2439 : 			sfdat->dataoffset = bytepos;

  00938	48 8b 84 24 a0
	00 00 00	 mov	 rax, QWORD PTR sfdat$[rsp]
  00940	48 8b 4c 24 70	 mov	 rcx, QWORD PTR bytepos$[rsp]
  00945	48 89 48 38	 mov	 QWORD PTR [rax+56], rcx

; 2440 : 			POS64(sfdat->dataoffset) += offset;

  00949	8b 44 24 40	 mov	 eax, DWORD PTR offset$[rsp]
  0094d	48 8b 8c 24 a0
	00 00 00	 mov	 rcx, QWORD PTR sfdat$[rsp]
  00955	48 03 41 38	 add	 rax, QWORD PTR [rcx+56]
  00959	48 8b 8c 24 a0
	00 00 00	 mov	 rcx, QWORD PTR sfdat$[rsp]
  00961	48 89 41 38	 mov	 QWORD PTR [rcx+56], rax

; 2441 : 			sfdat->nFrames = (size - 2* sizeof(DWORD))/ sfdat->fmt.Format.nBlockAlign;

  00965	8b 44 24 2c	 mov	 eax, DWORD PTR size$[rsp]
  00969	48 83 e8 08	 sub	 rax, 8
  0096d	48 8b 8c 24 a0
	00 00 00	 mov	 rcx, QWORD PTR sfdat$[rsp]
  00975	0f b7 49 5c	 movzx	 ecx, WORD PTR [rcx+92]
  00979	33 d2		 xor	 edx, edx
  0097b	48 f7 f1	 div	 rcx
  0097e	48 8b 8c 24 a0
	00 00 00	 mov	 rcx, QWORD PTR sfdat$[rsp]
  00986	89 41 14	 mov	 DWORD PTR [rcx+20], eax

; 2442 : 			/* NB for seek: we used up 8 bytes with offset and blocksize */
; 2443 : 			/* if we already have COMM, we could finish here! */
; 2444 : 			if(fseek(sfdat->file,((size - 2* sizeof(DWORD))+1)&~1,SEEK_CUR))

  00989	8b 44 24 2c	 mov	 eax, DWORD PTR size$[rsp]
  0098d	48 83 e8 07	 sub	 rax, 7
  00991	48 83 e0 fe	 and	 rax, -2
  00995	41 b8 01 00 00
	00		 mov	 r8d, 1
  0099b	8b d0		 mov	 edx, eax
  0099d	48 8b 84 24 a0
	00 00 00	 mov	 rax, QWORD PTR sfdat$[rsp]
  009a5	48 8b 08	 mov	 rcx, QWORD PTR [rax]
  009a8	e8 00 00 00 00	 call	 fseek
  009ad	85 c0		 test	 eax, eax
  009af	74 0a		 je	 SHORT $LN57@aiffReadHe

; 2445 : 				return PSF_E_CANT_SEEK;				

  009b1	b8 f5 ff ff ff	 mov	 eax, -11
  009b6	e9 ca 01 00 00	 jmp	 $LN1@aiffReadHe
$LN57@aiffReadHe:

; 2446 : 			have_ssnd = 1;

  009bb	c7 44 24 5c 01
	00 00 00	 mov	 DWORD PTR have_ssnd$[rsp], 1

; 2447 : 			remain -= (size+1)&~1;

  009c3	8b 44 24 2c	 mov	 eax, DWORD PTR size$[rsp]
  009c7	ff c0		 inc	 eax
  009c9	83 e0 fe	 and	 eax, -2			; fffffffeH
  009cc	8b 4c 24 28	 mov	 ecx, DWORD PTR remain$[rsp]
  009d0	2b c8		 sub	 ecx, eax
  009d2	8b c1		 mov	 eax, ecx
  009d4	89 44 24 28	 mov	 DWORD PTR remain$[rsp], eax

; 2448 : 			break;

  009d8	eb 4e		 jmp	 SHORT $LN4@aiffReadHe
$LN58@aiffReadHe:

; 2449 : 		/*HARSH! traps old linux sox error, for example */
; 2450 : 		case(0):
; 2451 : 			DBGFPRINTF((stderr, "AIFF file has bad main chunksize\n"));
; 2452 : 			return PSF_E_BAD_FORMAT;

  009da	b8 f9 ff ff ff	 mov	 eax, -7
  009df	e9 a1 01 00 00	 jmp	 $LN1@aiffReadHe
$LN59@aiffReadHe:

; 2453 : 		default:
; 2454 : 			/* skip all unknown chunks */
; 2455 :             if(fseek(sfdat->file,(size+1)&~1,SEEK_CUR))

  009e4	8b 44 24 2c	 mov	 eax, DWORD PTR size$[rsp]
  009e8	ff c0		 inc	 eax
  009ea	83 e0 fe	 and	 eax, -2			; fffffffeH
  009ed	41 b8 01 00 00
	00		 mov	 r8d, 1
  009f3	8b d0		 mov	 edx, eax
  009f5	48 8b 84 24 a0
	00 00 00	 mov	 rax, QWORD PTR sfdat$[rsp]
  009fd	48 8b 08	 mov	 rcx, QWORD PTR [rax]
  00a00	e8 00 00 00 00	 call	 fseek
  00a05	85 c0		 test	 eax, eax
  00a07	74 0a		 je	 SHORT $LN60@aiffReadHe

; 2456 : 				return PSF_E_CANT_SEEK;

  00a09	b8 f5 ff ff ff	 mov	 eax, -11
  00a0e	e9 72 01 00 00	 jmp	 $LN1@aiffReadHe
$LN60@aiffReadHe:

; 2457 : 			remain -= (size+1)&~1;

  00a13	8b 44 24 2c	 mov	 eax, DWORD PTR size$[rsp]
  00a17	ff c0		 inc	 eax
  00a19	83 e0 fe	 and	 eax, -2			; fffffffeH
  00a1c	8b 4c 24 28	 mov	 ecx, DWORD PTR remain$[rsp]
  00a20	2b c8		 sub	 ecx, eax
  00a22	8b c1		 mov	 eax, ecx
  00a24	89 44 24 28	 mov	 DWORD PTR remain$[rsp], eax
$LN4@aiffReadHe:

; 2458 : 			break;
; 2459 : 		}
; 2460 : 	}

  00a28	e9 93 f7 ff ff	 jmp	 $LN2@aiffReadHe
$LN3@aiffReadHe:

; 2461 : 	if(!(have_ssnd && have_comm)){

  00a2d	83 7c 24 5c 00	 cmp	 DWORD PTR have_ssnd$[rsp], 0
  00a32	74 07		 je	 SHORT $LN62@aiffReadHe
  00a34	83 7c 24 58 00	 cmp	 DWORD PTR have_comm$[rsp], 0
  00a39	75 0a		 jne	 SHORT $LN61@aiffReadHe
$LN62@aiffReadHe:

; 2462 : 		DBGFPRINTF((stderr, "AIFF file has missing chunks\n"));
; 2463 : 		return PSF_E_BAD_FORMAT;

  00a3b	b8 f9 ff ff ff	 mov	 eax, -7
  00a40	e9 40 01 00 00	 jmp	 $LN1@aiffReadHe
$LN61@aiffReadHe:

; 2464 : 	}
; 2465 : 	/* we have seeked to EOF, so rewind to start of data */
; 2466 : 	if(fsetpos(sfdat->file,&sfdat->dataoffset))

  00a45	48 8b 84 24 a0
	00 00 00	 mov	 rax, QWORD PTR sfdat$[rsp]
  00a4d	48 83 c0 38	 add	 rax, 56			; 00000038H
  00a51	48 8b d0	 mov	 rdx, rax
  00a54	48 8b 84 24 a0
	00 00 00	 mov	 rax, QWORD PTR sfdat$[rsp]
  00a5c	48 8b 08	 mov	 rcx, QWORD PTR [rax]
  00a5f	e8 00 00 00 00	 call	 fsetpos
  00a64	85 c0		 test	 eax, eax
  00a66	74 0a		 je	 SHORT $LN63@aiffReadHe

; 2467 : 		return PSF_E_CANT_SEEK;			

  00a68	b8 f5 ff ff ff	 mov	 eax, -11
  00a6d	e9 13 01 00 00	 jmp	 $LN1@aiffReadHe
$LN63@aiffReadHe:

; 2468 : 	sfdat->curframepos = 0;	

  00a72	48 8b 84 24 a0
	00 00 00	 mov	 rax, QWORD PTR sfdat$[rsp]
  00a7a	c7 40 10 00 00
	00 00		 mov	 DWORD PTR [rax+16], 0

; 2469 : 	sfdat->riff_format = PSF_AIFF;

  00a81	48 8b 84 24 a0
	00 00 00	 mov	 rax, QWORD PTR sfdat$[rsp]
  00a89	c7 40 28 03 00
	00 00		 mov	 DWORD PTR [rax+40], 3

; 2470 : 	/* get rescale factor if available */
; 2471 : 	/* NB in correct format, val is always >= 0.0 */
; 2472 : 	if(sfdat->pPeaks &&  POS64(sfdat->peakoffset) != 0){

  00a90	48 8b 84 24 a0
	00 00 00	 mov	 rax, QWORD PTR sfdat$[rsp]
  00a98	48 83 b8 80 00
	00 00 00	 cmp	 QWORD PTR [rax+128], 0
  00aa0	0f 84 cb 00 00
	00		 je	 $LN64@aiffReadHe
  00aa6	48 8b 84 24 a0
	00 00 00	 mov	 rax, QWORD PTR sfdat$[rsp]
  00aae	48 83 78 48 00	 cmp	 QWORD PTR [rax+72], 0
  00ab3	0f 84 b8 00 00
	00		 je	 $LN64@aiffReadHe

; 2473 : 		float fac = 0.0f;

  00ab9	0f 57 c0	 xorps	 xmm0, xmm0
  00abc	f3 0f 11 44 24
	4c		 movss	 DWORD PTR fac$3[rsp], xmm0

; 2474 : 		int i;
; 2475 : 		for(i=0;i < sfdat->fmt.Format.nChannels; i++)

  00ac2	c7 44 24 48 00
	00 00 00	 mov	 DWORD PTR i$2[rsp], 0
  00aca	eb 0a		 jmp	 SHORT $LN13@aiffReadHe
$LN11@aiffReadHe:
  00acc	8b 44 24 48	 mov	 eax, DWORD PTR i$2[rsp]
  00ad0	ff c0		 inc	 eax
  00ad2	89 44 24 48	 mov	 DWORD PTR i$2[rsp], eax
$LN13@aiffReadHe:
  00ad6	48 8b 84 24 a0
	00 00 00	 mov	 rax, QWORD PTR sfdat$[rsp]
  00ade	0f b7 40 52	 movzx	 eax, WORD PTR [rax+82]
  00ae2	39 44 24 48	 cmp	 DWORD PTR i$2[rsp], eax
  00ae6	7d 5f		 jge	 SHORT $LN12@aiffReadHe

; 2476 : 			fac = max(fac,sfdat->pPeaks[i].val);

  00ae8	48 63 44 24 48	 movsxd	 rax, DWORD PTR i$2[rsp]
  00aed	48 8b 8c 24 a0
	00 00 00	 mov	 rcx, QWORD PTR sfdat$[rsp]
  00af5	48 8b 89 80 00
	00 00		 mov	 rcx, QWORD PTR [rcx+128]
  00afc	f3 0f 10 04 c1	 movss	 xmm0, DWORD PTR [rcx+rax*8]
  00b01	f3 0f 10 4c 24
	4c		 movss	 xmm1, DWORD PTR fac$3[rsp]
  00b07	0f 2f c8	 comiss	 xmm1, xmm0
  00b0a	76 0e		 jbe	 SHORT $LN67@aiffReadHe
  00b0c	f3 0f 10 44 24
	4c		 movss	 xmm0, DWORD PTR fac$3[rsp]
  00b12	f3 0f 11 44 24
	60		 movss	 DWORD PTR tv500[rsp], xmm0
  00b18	eb 1f		 jmp	 SHORT $LN68@aiffReadHe
$LN67@aiffReadHe:
  00b1a	48 63 44 24 48	 movsxd	 rax, DWORD PTR i$2[rsp]
  00b1f	48 8b 8c 24 a0
	00 00 00	 mov	 rcx, QWORD PTR sfdat$[rsp]
  00b27	48 8b 89 80 00
	00 00		 mov	 rcx, QWORD PTR [rcx+128]
  00b2e	f3 0f 10 04 c1	 movss	 xmm0, DWORD PTR [rcx+rax*8]
  00b33	f3 0f 11 44 24
	60		 movss	 DWORD PTR tv500[rsp], xmm0
$LN68@aiffReadHe:
  00b39	f3 0f 10 44 24
	60		 movss	 xmm0, DWORD PTR tv500[rsp]
  00b3f	f3 0f 11 44 24
	4c		 movss	 DWORD PTR fac$3[rsp], xmm0
  00b45	eb 85		 jmp	 SHORT $LN11@aiffReadHe
$LN12@aiffReadHe:

; 2477 : 		if(fac > 1.0f)

  00b47	f3 0f 10 44 24
	4c		 movss	 xmm0, DWORD PTR fac$3[rsp]
  00b4d	0f 2f 05 00 00
	00 00		 comiss	 xmm0, DWORD PTR __real@3f800000
  00b54	76 1b		 jbe	 SHORT $LN65@aiffReadHe

; 2478 : 			sfdat->rescale_fac = 1.0f / fac;

  00b56	f3 0f 10 05 00
	00 00 00	 movss	 xmm0, DWORD PTR __real@3f800000
  00b5e	f3 0f 5e 44 24
	4c		 divss	 xmm0, DWORD PTR fac$3[rsp]
  00b64	48 8b 84 24 a0
	00 00 00	 mov	 rax, QWORD PTR sfdat$[rsp]
  00b6c	f3 0f 11 40 24	 movss	 DWORD PTR [rax+36], xmm0
$LN65@aiffReadHe:
$LN64@aiffReadHe:

; 2479 : 	}
; 2480 : 	sfdat->lastop  = PSF_OP_READ;

  00b71	48 8b 84 24 a0
	00 00 00	 mov	 rax, QWORD PTR sfdat$[rsp]
  00b79	c7 80 98 00 00
	00 00 00 00 00	 mov	 DWORD PTR [rax+152], 0

; 2481 : 	return PSF_E_NOERROR;

  00b83	33 c0		 xor	 eax, eax
$LN1@aiffReadHe:

; 2482 : }

  00b85	48 8b 8c 24 88
	00 00 00	 mov	 rcx, QWORD PTR __$ArrayPad$[rsp]
  00b8d	48 33 cc	 xor	 rcx, rsp
  00b90	e8 00 00 00 00	 call	 __security_check_cookie
  00b95	48 81 c4 98 00
	00 00		 add	 rsp, 152		; 00000098H
  00b9c	c3		 ret	 0
aiffReadHeader ENDP
_TEXT	ENDS
; Function compile flags: /Odtp
; File k:\audio\editing\current\programming\the_audio_programming_book\test_code\misc\psfmaster\portsf\portsf.c
_TEXT	SEGMENT
tag$ = 32
size$ = 36
cbSize$ = 40
i$1 = 44
version$ = 48
peaktime$ = 52
validbits$2 = 56
chmask$3 = 60
i$4 = 64
fac$5 = 68
tv502 = 72
dummy$6 = 76
tv189 = 80
fmtsize$7 = 84
tv491 = 88
tv485 = 92
pBlock$8 = 96
bytepos$ = 104
tv462 = 112
sfdat$ = 144
wavReadHeader PROC

; 2068 : {

  00000	48 89 4c 24 08	 mov	 QWORD PTR [rsp+8], rcx
  00005	48 81 ec 88 00
	00 00		 sub	 rsp, 136		; 00000088H

; 2069 : 	DWORD tag,version,peaktime;
; 2070 : 	DWORD size;
; 2071 : 	WORD cbSize;
; 2072 : 	fpos_t bytepos;
; 2073 : 
; 2074 : 	if(sfdat==NULL || sfdat->file == NULL)

  0000c	48 83 bc 24 90
	00 00 00 00	 cmp	 QWORD PTR sfdat$[rsp], 0
  00015	74 0e		 je	 SHORT $LN20@wavReadHea
  00017	48 8b 84 24 90
	00 00 00	 mov	 rax, QWORD PTR sfdat$[rsp]
  0001f	48 83 38 00	 cmp	 QWORD PTR [rax], 0
  00023	75 0a		 jne	 SHORT $LN19@wavReadHea
$LN20@wavReadHea:

; 2075 : 		return PSF_E_BADARG;

  00025	b8 f6 ff ff ff	 mov	 eax, -10
  0002a	e9 94 0c 00 00	 jmp	 $LN1@wavReadHea
$LN19@wavReadHea:

; 2076 : 
; 2077 : 	if(wavDoRead(sfdat,(char *)&tag,sizeof(DWORD))
; 2078 : 		|| wavDoRead(sfdat,(char *) &size,sizeof(DWORD)))

  0002f	41 b8 04 00 00
	00		 mov	 r8d, 4
  00035	48 8d 54 24 20	 lea	 rdx, QWORD PTR tag$[rsp]
  0003a	48 8b 8c 24 90
	00 00 00	 mov	 rcx, QWORD PTR sfdat$[rsp]
  00042	e8 00 00 00 00	 call	 wavDoRead
  00047	85 c0		 test	 eax, eax
  00049	75 1c		 jne	 SHORT $LN22@wavReadHea
  0004b	41 b8 04 00 00
	00		 mov	 r8d, 4
  00051	48 8d 54 24 24	 lea	 rdx, QWORD PTR size$[rsp]
  00056	48 8b 8c 24 90
	00 00 00	 mov	 rcx, QWORD PTR sfdat$[rsp]
  0005e	e8 00 00 00 00	 call	 wavDoRead
  00063	85 c0		 test	 eax, eax
  00065	74 0a		 je	 SHORT $LN21@wavReadHea
$LN22@wavReadHea:

; 2079 : 		return PSF_E_CANT_READ;

  00067	b8 fc ff ff ff	 mov	 eax, -4
  0006c	e9 52 0c 00 00	 jmp	 $LN1@wavReadHea
$LN21@wavReadHea:

; 2080 : 	if(!sfdat->is_little_endian)

  00071	48 8b 84 24 90
	00 00 00	 mov	 rax, QWORD PTR sfdat$[rsp]
  00079	83 78 2c 00	 cmp	 DWORD PTR [rax+44], 0
  0007d	75 3f		 jne	 SHORT $LN23@wavReadHea

; 2081 : 		size = REVDWBYTES(size);

  0007f	8b 44 24 24	 mov	 eax, DWORD PTR size$[rsp]
  00083	25 ff 00 00 00	 and	 eax, 255		; 000000ffH
  00088	c1 e0 18	 shl	 eax, 24
  0008b	8b 4c 24 24	 mov	 ecx, DWORD PTR size$[rsp]
  0008f	81 e1 00 ff 00
	00		 and	 ecx, 65280		; 0000ff00H
  00095	c1 e1 08	 shl	 ecx, 8
  00098	0b c1		 or	 eax, ecx
  0009a	8b 4c 24 24	 mov	 ecx, DWORD PTR size$[rsp]
  0009e	81 e1 00 00 ff
	00		 and	 ecx, 16711680		; 00ff0000H
  000a4	c1 e9 08	 shr	 ecx, 8
  000a7	0b c1		 or	 eax, ecx
  000a9	8b 4c 24 24	 mov	 ecx, DWORD PTR size$[rsp]
  000ad	c1 e9 18	 shr	 ecx, 24
  000b0	81 e1 ff 00 00
	00		 and	 ecx, 255		; 000000ffH
  000b6	0b c1		 or	 eax, ecx
  000b8	89 44 24 24	 mov	 DWORD PTR size$[rsp], eax
  000bc	eb 3d		 jmp	 SHORT $LN24@wavReadHea
$LN23@wavReadHea:

; 2082 : 	else
; 2083 : 		tag = REVDWBYTES(tag);

  000be	8b 44 24 20	 mov	 eax, DWORD PTR tag$[rsp]
  000c2	25 ff 00 00 00	 and	 eax, 255		; 000000ffH
  000c7	c1 e0 18	 shl	 eax, 24
  000ca	8b 4c 24 20	 mov	 ecx, DWORD PTR tag$[rsp]
  000ce	81 e1 00 ff 00
	00		 and	 ecx, 65280		; 0000ff00H
  000d4	c1 e1 08	 shl	 ecx, 8
  000d7	0b c1		 or	 eax, ecx
  000d9	8b 4c 24 20	 mov	 ecx, DWORD PTR tag$[rsp]
  000dd	81 e1 00 00 ff
	00		 and	 ecx, 16711680		; 00ff0000H
  000e3	c1 e9 08	 shr	 ecx, 8
  000e6	0b c1		 or	 eax, ecx
  000e8	8b 4c 24 20	 mov	 ecx, DWORD PTR tag$[rsp]
  000ec	c1 e9 18	 shr	 ecx, 24
  000ef	81 e1 ff 00 00
	00		 and	 ecx, 255		; 000000ffH
  000f5	0b c1		 or	 eax, ecx
  000f7	89 44 24 20	 mov	 DWORD PTR tag$[rsp], eax
$LN24@wavReadHea:

; 2084 : 	if(tag != TAG('R','I','F','F'))

  000fb	81 7c 24 20 46
	46 49 52	 cmp	 DWORD PTR tag$[rsp], 1380533830 ; 52494646H
  00103	74 0a		 je	 SHORT $LN25@wavReadHea

; 2085 : 		return PSF_E_NOT_WAVE;

  00105	b8 fb ff ff ff	 mov	 eax, -5
  0010a	e9 b4 0b 00 00	 jmp	 $LN1@wavReadHea
$LN25@wavReadHea:

; 2086 : 	if(size < (sizeof(WAVEFORMAT) + 3 * sizeof(WORD)))

  0010f	8b 44 24 24	 mov	 eax, DWORD PTR size$[rsp]
  00113	48 83 f8 16	 cmp	 rax, 22
  00117	73 0a		 jae	 SHORT $LN26@wavReadHea

; 2087 : 		return PSF_E_BAD_FORMAT;

  00119	b8 f9 ff ff ff	 mov	 eax, -7
  0011e	e9 a0 0b 00 00	 jmp	 $LN1@wavReadHea
$LN26@wavReadHea:

; 2088 : 
; 2089 : 	if(wavDoRead(sfdat,(char *)&tag,sizeof(DWORD)))

  00123	41 b8 04 00 00
	00		 mov	 r8d, 4
  00129	48 8d 54 24 20	 lea	 rdx, QWORD PTR tag$[rsp]
  0012e	48 8b 8c 24 90
	00 00 00	 mov	 rcx, QWORD PTR sfdat$[rsp]
  00136	e8 00 00 00 00	 call	 wavDoRead
  0013b	85 c0		 test	 eax, eax
  0013d	74 0a		 je	 SHORT $LN27@wavReadHea

; 2090 : 		return PSF_E_CANT_READ;

  0013f	b8 fc ff ff ff	 mov	 eax, -4
  00144	e9 7a 0b 00 00	 jmp	 $LN1@wavReadHea
$LN27@wavReadHea:

; 2091 : 	if(sfdat->is_little_endian)

  00149	48 8b 84 24 90
	00 00 00	 mov	 rax, QWORD PTR sfdat$[rsp]
  00151	83 78 2c 00	 cmp	 DWORD PTR [rax+44], 0
  00155	74 3d		 je	 SHORT $LN28@wavReadHea

; 2092 : 		tag = REVDWBYTES(tag);

  00157	8b 44 24 20	 mov	 eax, DWORD PTR tag$[rsp]
  0015b	25 ff 00 00 00	 and	 eax, 255		; 000000ffH
  00160	c1 e0 18	 shl	 eax, 24
  00163	8b 4c 24 20	 mov	 ecx, DWORD PTR tag$[rsp]
  00167	81 e1 00 ff 00
	00		 and	 ecx, 65280		; 0000ff00H
  0016d	c1 e1 08	 shl	 ecx, 8
  00170	0b c1		 or	 eax, ecx
  00172	8b 4c 24 20	 mov	 ecx, DWORD PTR tag$[rsp]
  00176	81 e1 00 00 ff
	00		 and	 ecx, 16711680		; 00ff0000H
  0017c	c1 e9 08	 shr	 ecx, 8
  0017f	0b c1		 or	 eax, ecx
  00181	8b 4c 24 20	 mov	 ecx, DWORD PTR tag$[rsp]
  00185	c1 e9 18	 shr	 ecx, 24
  00188	81 e1 ff 00 00
	00		 and	 ecx, 255		; 000000ffH
  0018e	0b c1		 or	 eax, ecx
  00190	89 44 24 20	 mov	 DWORD PTR tag$[rsp], eax
$LN28@wavReadHea:

; 2093 : 	if(tag != TAG('W','A','V','E'))

  00194	81 7c 24 20 45
	56 41 57	 cmp	 DWORD PTR tag$[rsp], 1463899717 ; 57415645H
  0019c	74 0a		 je	 SHORT $LN29@wavReadHea

; 2094 : 		return PSF_E_NOT_WAVE;

  0019e	b8 fb ff ff ff	 mov	 eax, -5
  001a3	e9 1b 0b 00 00	 jmp	 $LN1@wavReadHea
$LN29@wavReadHea:
$LN2@wavReadHea:

; 2095 : 	for(;;){
; 2096 : 		if(wavDoRead(sfdat,(char *)&tag,sizeof(DWORD))
; 2097 : 				|| wavDoRead(sfdat,(char *) &size,sizeof(DWORD)))

  001a8	41 b8 04 00 00
	00		 mov	 r8d, 4
  001ae	48 8d 54 24 20	 lea	 rdx, QWORD PTR tag$[rsp]
  001b3	48 8b 8c 24 90
	00 00 00	 mov	 rcx, QWORD PTR sfdat$[rsp]
  001bb	e8 00 00 00 00	 call	 wavDoRead
  001c0	85 c0		 test	 eax, eax
  001c2	75 1c		 jne	 SHORT $LN31@wavReadHea
  001c4	41 b8 04 00 00
	00		 mov	 r8d, 4
  001ca	48 8d 54 24 24	 lea	 rdx, QWORD PTR size$[rsp]
  001cf	48 8b 8c 24 90
	00 00 00	 mov	 rcx, QWORD PTR sfdat$[rsp]
  001d7	e8 00 00 00 00	 call	 wavDoRead
  001dc	85 c0		 test	 eax, eax
  001de	74 0a		 je	 SHORT $LN30@wavReadHea
$LN31@wavReadHea:

; 2098 : 			return PSF_E_CANT_READ;

  001e0	b8 fc ff ff ff	 mov	 eax, -4
  001e5	e9 d9 0a 00 00	 jmp	 $LN1@wavReadHea
$LN30@wavReadHea:

; 2099 : 		if(!sfdat->is_little_endian)

  001ea	48 8b 84 24 90
	00 00 00	 mov	 rax, QWORD PTR sfdat$[rsp]
  001f2	83 78 2c 00	 cmp	 DWORD PTR [rax+44], 0
  001f6	75 3f		 jne	 SHORT $LN32@wavReadHea

; 2100 : 			size = REVDWBYTES(size);

  001f8	8b 44 24 24	 mov	 eax, DWORD PTR size$[rsp]
  001fc	25 ff 00 00 00	 and	 eax, 255		; 000000ffH
  00201	c1 e0 18	 shl	 eax, 24
  00204	8b 4c 24 24	 mov	 ecx, DWORD PTR size$[rsp]
  00208	81 e1 00 ff 00
	00		 and	 ecx, 65280		; 0000ff00H
  0020e	c1 e1 08	 shl	 ecx, 8
  00211	0b c1		 or	 eax, ecx
  00213	8b 4c 24 24	 mov	 ecx, DWORD PTR size$[rsp]
  00217	81 e1 00 00 ff
	00		 and	 ecx, 16711680		; 00ff0000H
  0021d	c1 e9 08	 shr	 ecx, 8
  00220	0b c1		 or	 eax, ecx
  00222	8b 4c 24 24	 mov	 ecx, DWORD PTR size$[rsp]
  00226	c1 e9 18	 shr	 ecx, 24
  00229	81 e1 ff 00 00
	00		 and	 ecx, 255		; 000000ffH
  0022f	0b c1		 or	 eax, ecx
  00231	89 44 24 24	 mov	 DWORD PTR size$[rsp], eax
  00235	eb 3d		 jmp	 SHORT $LN33@wavReadHea
$LN32@wavReadHea:

; 2101 : 		else
; 2102 : 			tag = REVDWBYTES(tag);

  00237	8b 44 24 20	 mov	 eax, DWORD PTR tag$[rsp]
  0023b	25 ff 00 00 00	 and	 eax, 255		; 000000ffH
  00240	c1 e0 18	 shl	 eax, 24
  00243	8b 4c 24 20	 mov	 ecx, DWORD PTR tag$[rsp]
  00247	81 e1 00 ff 00
	00		 and	 ecx, 65280		; 0000ff00H
  0024d	c1 e1 08	 shl	 ecx, 8
  00250	0b c1		 or	 eax, ecx
  00252	8b 4c 24 20	 mov	 ecx, DWORD PTR tag$[rsp]
  00256	81 e1 00 00 ff
	00		 and	 ecx, 16711680		; 00ff0000H
  0025c	c1 e9 08	 shr	 ecx, 8
  0025f	0b c1		 or	 eax, ecx
  00261	8b 4c 24 20	 mov	 ecx, DWORD PTR tag$[rsp]
  00265	c1 e9 18	 shr	 ecx, 24
  00268	81 e1 ff 00 00
	00		 and	 ecx, 255		; 000000ffH
  0026e	0b c1		 or	 eax, ecx
  00270	89 44 24 20	 mov	 DWORD PTR tag$[rsp], eax
$LN33@wavReadHea:

; 2103 : 		switch(tag){

  00274	8b 44 24 20	 mov	 eax, DWORD PTR tag$[rsp]
  00278	89 44 24 50	 mov	 DWORD PTR tv189[rsp], eax
  0027c	81 7c 24 50 4b
	41 45 50	 cmp	 DWORD PTR tv189[rsp], 1346715979 ; 5045414bH
  00284	0f 84 76 04 00
	00		 je	 $LN59@wavReadHea
  0028a	81 7c 24 50 61
	74 61 64	 cmp	 DWORD PTR tv189[rsp], 1684108385 ; 64617461H
  00292	0f 84 0b 07 00
	00		 je	 $LN70@wavReadHea
  00298	81 7c 24 50 20
	74 6d 66	 cmp	 DWORD PTR tv189[rsp], 1718449184 ; 666d7420H
  002a0	74 05		 je	 SHORT $LN34@wavReadHea
  002a2	e9 f2 09 00 00	 jmp	 $LN89@wavReadHea
$LN34@wavReadHea:

; 2104 : 		case(TAG('f','m','t',' ')):
; 2105 : 			if( size < sizeof(WAVEFORMAT))

  002a7	8b 44 24 24	 mov	 eax, DWORD PTR size$[rsp]
  002ab	48 83 f8 10	 cmp	 rax, 16
  002af	73 0a		 jae	 SHORT $LN35@wavReadHea

; 2106 : 				return PSF_E_BAD_FORMAT;

  002b1	b8 f9 ff ff ff	 mov	 eax, -7
  002b6	e9 08 0a 00 00	 jmp	 $LN1@wavReadHea
$LN35@wavReadHea:

; 2107 : 			if(size > sizeof_WFMTEX)

  002bb	83 7c 24 24 28	 cmp	 DWORD PTR size$[rsp], 40 ; 00000028H
  002c0	76 0a		 jbe	 SHORT $LN36@wavReadHea

; 2108 : 				return PSF_E_UNSUPPORTED;

  002c2	b8 f8 ff ff ff	 mov	 eax, -8
  002c7	e9 f7 09 00 00	 jmp	 $LN1@wavReadHea
$LN36@wavReadHea:

; 2109 : 			if(fgetpos(sfdat->file,&bytepos))

  002cc	48 8d 54 24 68	 lea	 rdx, QWORD PTR bytepos$[rsp]
  002d1	48 8b 84 24 90
	00 00 00	 mov	 rax, QWORD PTR sfdat$[rsp]
  002d9	48 8b 08	 mov	 rcx, QWORD PTR [rax]
  002dc	e8 00 00 00 00	 call	 fgetpos
  002e1	85 c0		 test	 eax, eax
  002e3	74 0a		 je	 SHORT $LN37@wavReadHea

; 2110 : 			    return PSF_E_CANT_SEEK;

  002e5	b8 f5 ff ff ff	 mov	 eax, -11
  002ea	e9 d4 09 00 00	 jmp	 $LN1@wavReadHea
$LN37@wavReadHea:

; 2111 : 			sfdat->fmtoffset = bytepos;

  002ef	48 8b 84 24 90
	00 00 00	 mov	 rax, QWORD PTR sfdat$[rsp]
  002f7	48 8b 4c 24 68	 mov	 rcx, QWORD PTR bytepos$[rsp]
  002fc	48 89 48 40	 mov	 QWORD PTR [rax+64], rcx

; 2112 : 			if(wavDoRead(sfdat,(char *)&(sfdat->fmt.Format),sizeof(WAVEFORMAT))){				

  00300	48 8b 84 24 90
	00 00 00	 mov	 rax, QWORD PTR sfdat$[rsp]
  00308	48 83 c0 50	 add	 rax, 80			; 00000050H
  0030c	41 b8 10 00 00
	00		 mov	 r8d, 16
  00312	48 8b d0	 mov	 rdx, rax
  00315	48 8b 8c 24 90
	00 00 00	 mov	 rcx, QWORD PTR sfdat$[rsp]
  0031d	e8 00 00 00 00	 call	 wavDoRead
  00322	85 c0		 test	 eax, eax
  00324	74 0a		 je	 SHORT $LN38@wavReadHea

; 2113 : 				return PSF_E_CANT_READ;

  00326	b8 fc ff ff ff	 mov	 eax, -4
  0032b	e9 93 09 00 00	 jmp	 $LN1@wavReadHea
$LN38@wavReadHea:

; 2114 : 			}
; 2115 : 			if(!sfdat->is_little_endian)		

  00330	48 8b 84 24 90
	00 00 00	 mov	 rax, QWORD PTR sfdat$[rsp]
  00338	83 78 2c 00	 cmp	 DWORD PTR [rax+44], 0
  0033c	75 0d		 jne	 SHORT $LN39@wavReadHea

; 2116 : 				fmtSwapBytes(sfdat);	

  0033e	48 8b 8c 24 90
	00 00 00	 mov	 rcx, QWORD PTR sfdat$[rsp]
  00346	e8 00 00 00 00	 call	 fmtSwapBytes
$LN39@wavReadHea:

; 2117 : 			/* calling function decides if format is supported*/
; 2118 : 			if(size > sizeof(WAVEFORMAT)) {

  0034b	8b 44 24 24	 mov	 eax, DWORD PTR size$[rsp]
  0034f	48 83 f8 10	 cmp	 rax, 16
  00353	0f 86 a2 03 00
	00		 jbe	 $LN40@wavReadHea

; 2119 : 				if(wavDoRead(sfdat,(char*)&cbSize,sizeof(WORD)))

  00359	41 b8 02 00 00
	00		 mov	 r8d, 2
  0035f	48 8d 54 24 28	 lea	 rdx, QWORD PTR cbSize$[rsp]
  00364	48 8b 8c 24 90
	00 00 00	 mov	 rcx, QWORD PTR sfdat$[rsp]
  0036c	e8 00 00 00 00	 call	 wavDoRead
  00371	85 c0		 test	 eax, eax
  00373	74 0a		 je	 SHORT $LN41@wavReadHea

; 2120 : 					return PSF_E_CANT_READ;

  00375	b8 fc ff ff ff	 mov	 eax, -4
  0037a	e9 44 09 00 00	 jmp	 $LN1@wavReadHea
$LN41@wavReadHea:

; 2121 : 				if(!sfdat->is_little_endian)		

  0037f	48 8b 84 24 90
	00 00 00	 mov	 rax, QWORD PTR sfdat$[rsp]
  00387	83 78 2c 00	 cmp	 DWORD PTR [rax+44], 0
  0038b	75 22		 jne	 SHORT $LN42@wavReadHea

; 2122 : 					cbSize = (WORD) REVWBYTES(cbSize);

  0038d	0f b7 44 24 28	 movzx	 eax, WORD PTR cbSize$[rsp]
  00392	25 ff 00 00 00	 and	 eax, 255		; 000000ffH
  00397	c1 e0 08	 shl	 eax, 8
  0039a	0f b7 4c 24 28	 movzx	 ecx, WORD PTR cbSize$[rsp]
  0039f	c1 f9 08	 sar	 ecx, 8
  003a2	81 e1 ff 00 00
	00		 and	 ecx, 255		; 000000ffH
  003a8	0b c1		 or	 eax, ecx
  003aa	66 89 44 24 28	 mov	 WORD PTR cbSize$[rsp], ax
$LN42@wavReadHea:

; 2123 : 				if(cbSize != (WORD)0) {

  003af	0f b7 44 24 28	 movzx	 eax, WORD PTR cbSize$[rsp]
  003b4	85 c0		 test	 eax, eax
  003b6	74 3b		 je	 SHORT $LN43@wavReadHea

; 2124 : 					if(sfdat->fmt.Format.wFormatTag	== WAVE_FORMAT_EXTENSIBLE){

  003b8	48 8b 84 24 90
	00 00 00	 mov	 rax, QWORD PTR sfdat$[rsp]
  003c0	0f b7 40 50	 movzx	 eax, WORD PTR [rax+80]
  003c4	3d fe ff 00 00	 cmp	 eax, 65534		; 0000fffeH
  003c9	75 23		 jne	 SHORT $LN45@wavReadHea

; 2125 : 						if(cbSize != 22)

  003cb	0f b7 44 24 28	 movzx	 eax, WORD PTR cbSize$[rsp]
  003d0	83 f8 16	 cmp	 eax, 22
  003d3	74 0a		 je	 SHORT $LN46@wavReadHea

; 2126 : 							return PSF_E_BAD_FORMAT;

  003d5	b8 f9 ff ff ff	 mov	 eax, -7
  003da	e9 e4 08 00 00	 jmp	 $LN1@wavReadHea
$LN46@wavReadHea:

; 2127 : 						sfdat->riff_format = PSF_WAVE_EX;						

  003df	48 8b 84 24 90
	00 00 00	 mov	 rax, QWORD PTR sfdat$[rsp]
  003e7	c7 40 28 02 00
	00 00		 mov	 DWORD PTR [rax+40], 2
$LN45@wavReadHea:

; 2128 : 					}
; 2129 : 				}				

  003ee	e9 81 00 00 00	 jmp	 $LN44@wavReadHea
$LN43@wavReadHea:

; 2130 : 				else {
; 2131 :                     int fmtsize = 18;

  003f3	c7 44 24 54 12
	00 00 00	 mov	 DWORD PTR fmtsize$7[rsp], 18

; 2132 : 					/* cbSize = 0: has to be 18-byte WAVEFORMATEX */
; 2133 : 					if((sfdat->fmt.Format.wFormatTag == WAVE_FORMAT_PCM
; 2134 : 						|| sfdat->fmt.Format.wFormatTag	== WAVE_FORMAT_IEEE_FLOAT))

  003fb	48 8b 84 24 90
	00 00 00	 mov	 rax, QWORD PTR sfdat$[rsp]
  00403	0f b7 40 50	 movzx	 eax, WORD PTR [rax+80]
  00407	83 f8 01	 cmp	 eax, 1
  0040a	74 11		 je	 SHORT $LN49@wavReadHea
  0040c	48 8b 84 24 90
	00 00 00	 mov	 rax, QWORD PTR sfdat$[rsp]
  00414	0f b7 40 50	 movzx	 eax, WORD PTR [rax+80]
  00418	83 f8 03	 cmp	 eax, 3
  0041b	75 11		 jne	 SHORT $LN47@wavReadHea
$LN49@wavReadHea:

; 2135 : 						sfdat->riff_format = PSF_STDWAVE;

  0041d	48 8b 84 24 90
	00 00 00	 mov	 rax, QWORD PTR sfdat$[rsp]
  00425	c7 40 28 01 00
	00 00		 mov	 DWORD PTR [rax+40], 1
  0042c	eb 0a		 jmp	 SHORT $LN48@wavReadHea
$LN47@wavReadHea:

; 2136 : 					else  /* some horribly mangled format! */
; 2137 : 						return PSF_E_BAD_FORMAT;

  0042e	b8 f9 ff ff ff	 mov	 eax, -7
  00433	e9 8b 08 00 00	 jmp	 $LN1@wavReadHea
$LN48@wavReadHea:
$LN7@wavReadHea:

; 2138 :                     /* hack to handle bad files created by company X with overlarge fmt chunk! */
; 2139 :                     while (size > fmtsize){

  00438	8b 44 24 54	 mov	 eax, DWORD PTR fmtsize$7[rsp]
  0043c	39 44 24 24	 cmp	 DWORD PTR size$[rsp], eax
  00440	76 32		 jbe	 SHORT $LN8@wavReadHea

; 2140 :                         char dummy;
; 2141 :                         if(wavDoRead(sfdat,(char*)&dummy,sizeof(char)))

  00442	41 b8 01 00 00
	00		 mov	 r8d, 1
  00448	48 8d 54 24 4c	 lea	 rdx, QWORD PTR dummy$6[rsp]
  0044d	48 8b 8c 24 90
	00 00 00	 mov	 rcx, QWORD PTR sfdat$[rsp]
  00455	e8 00 00 00 00	 call	 wavDoRead
  0045a	85 c0		 test	 eax, eax
  0045c	74 0a		 je	 SHORT $LN50@wavReadHea

; 2142 : 					        return PSF_E_CANT_READ;

  0045e	b8 fc ff ff ff	 mov	 eax, -4
  00463	e9 5b 08 00 00	 jmp	 $LN1@wavReadHea
$LN50@wavReadHea:

; 2143 :                         fmtsize++;

  00468	8b 44 24 54	 mov	 eax, DWORD PTR fmtsize$7[rsp]
  0046c	ff c0		 inc	 eax
  0046e	89 44 24 54	 mov	 DWORD PTR fmtsize$7[rsp], eax

; 2144 :                         /* TODO: send irate message to user about illformed files*/
; 2145 :                     }

  00472	eb c4		 jmp	 SHORT $LN7@wavReadHea
$LN8@wavReadHea:
$LN44@wavReadHea:

; 2146 : 				}				
; 2147 : 				sfdat->fmt.Format.cbSize = cbSize;

  00474	48 8b 84 24 90
	00 00 00	 mov	 rax, QWORD PTR sfdat$[rsp]
  0047c	0f b7 4c 24 28	 movzx	 ecx, WORD PTR cbSize$[rsp]
  00481	66 89 48 60	 mov	 WORD PTR [rax+96], cx

; 2148 : 				/* fill in as if basic Format; may change later from WAVE-EX */
; 2149 : 				sfdat->fmt.Samples.wValidBitsPerSample = sfdat->fmt.Format.wBitsPerSample;

  00485	48 8b 84 24 90
	00 00 00	 mov	 rax, QWORD PTR sfdat$[rsp]
  0048d	48 8b 8c 24 90
	00 00 00	 mov	 rcx, QWORD PTR sfdat$[rsp]
  00495	0f b7 49 5e	 movzx	 ecx, WORD PTR [rcx+94]
  00499	66 89 48 64	 mov	 WORD PTR [rax+100], cx

; 2150 : 				sfdat->fmt.dwChannelMask = 0;			

  0049d	48 8b 84 24 90
	00 00 00	 mov	 rax, QWORD PTR sfdat$[rsp]
  004a5	c7 40 68 00 00
	00 00		 mov	 DWORD PTR [rax+104], 0

; 2151 : 				/* get rest of WAVE-EX, if we have it */
; 2152 : 				if(sfdat->fmt.Format.wFormatTag	== WAVE_FORMAT_EXTENSIBLE){

  004ac	48 8b 84 24 90
	00 00 00	 mov	 rax, QWORD PTR sfdat$[rsp]
  004b4	0f b7 40 50	 movzx	 eax, WORD PTR [rax+80]
  004b8	3d fe ff 00 00	 cmp	 eax, 65534		; 0000fffeH
  004bd	0f 85 38 02 00
	00		 jne	 $LN51@wavReadHea

; 2153 : 					WORD validbits;
; 2154 : 					DWORD chmask;
; 2155 : 					if(wavDoRead(sfdat,(char *) &validbits,sizeof(WORD)))

  004c3	41 b8 02 00 00
	00		 mov	 r8d, 2
  004c9	48 8d 54 24 38	 lea	 rdx, QWORD PTR validbits$2[rsp]
  004ce	48 8b 8c 24 90
	00 00 00	 mov	 rcx, QWORD PTR sfdat$[rsp]
  004d6	e8 00 00 00 00	 call	 wavDoRead
  004db	85 c0		 test	 eax, eax
  004dd	74 0a		 je	 SHORT $LN52@wavReadHea

; 2156 : 						return PSF_E_CANT_READ;

  004df	b8 fc ff ff ff	 mov	 eax, -4
  004e4	e9 da 07 00 00	 jmp	 $LN1@wavReadHea
$LN52@wavReadHea:

; 2157 : 					if(!sfdat->is_little_endian)		

  004e9	48 8b 84 24 90
	00 00 00	 mov	 rax, QWORD PTR sfdat$[rsp]
  004f1	83 78 2c 00	 cmp	 DWORD PTR [rax+44], 0
  004f5	75 29		 jne	 SHORT $LN53@wavReadHea

; 2158 : 						sfdat->fmt.Samples.wValidBitsPerSample = (WORD) REVWBYTES(validbits);

  004f7	0f b7 44 24 38	 movzx	 eax, WORD PTR validbits$2[rsp]
  004fc	25 ff 00 00 00	 and	 eax, 255		; 000000ffH
  00501	c1 e0 08	 shl	 eax, 8
  00504	0f b7 4c 24 38	 movzx	 ecx, WORD PTR validbits$2[rsp]
  00509	c1 f9 08	 sar	 ecx, 8
  0050c	81 e1 ff 00 00
	00		 and	 ecx, 255		; 000000ffH
  00512	0b c1		 or	 eax, ecx
  00514	48 8b 8c 24 90
	00 00 00	 mov	 rcx, QWORD PTR sfdat$[rsp]
  0051c	66 89 41 64	 mov	 WORD PTR [rcx+100], ax
$LN53@wavReadHea:

; 2159 : 					if(wavDoRead(sfdat,(char *) &chmask,sizeof(DWORD)))

  00520	41 b8 04 00 00
	00		 mov	 r8d, 4
  00526	48 8d 54 24 3c	 lea	 rdx, QWORD PTR chmask$3[rsp]
  0052b	48 8b 8c 24 90
	00 00 00	 mov	 rcx, QWORD PTR sfdat$[rsp]
  00533	e8 00 00 00 00	 call	 wavDoRead
  00538	85 c0		 test	 eax, eax
  0053a	74 0a		 je	 SHORT $LN54@wavReadHea

; 2160 : 						return PSF_E_CANT_READ;

  0053c	b8 fc ff ff ff	 mov	 eax, -4
  00541	e9 7d 07 00 00	 jmp	 $LN1@wavReadHea
$LN54@wavReadHea:

; 2161 :                     sfdat->fmt.dwChannelMask = chmask;

  00546	48 8b 84 24 90
	00 00 00	 mov	 rax, QWORD PTR sfdat$[rsp]
  0054e	8b 4c 24 3c	 mov	 ecx, DWORD PTR chmask$3[rsp]
  00552	89 48 68	 mov	 DWORD PTR [rax+104], ecx

; 2162 : 					if(!sfdat->is_little_endian)		

  00555	48 8b 84 24 90
	00 00 00	 mov	 rax, QWORD PTR sfdat$[rsp]
  0055d	83 78 2c 00	 cmp	 DWORD PTR [rax+44], 0
  00561	75 44		 jne	 SHORT $LN55@wavReadHea

; 2163 : 						sfdat->fmt.dwChannelMask = REVDWBYTES(chmask);

  00563	8b 44 24 3c	 mov	 eax, DWORD PTR chmask$3[rsp]
  00567	25 ff 00 00 00	 and	 eax, 255		; 000000ffH
  0056c	c1 e0 18	 shl	 eax, 24
  0056f	8b 4c 24 3c	 mov	 ecx, DWORD PTR chmask$3[rsp]
  00573	81 e1 00 ff 00
	00		 and	 ecx, 65280		; 0000ff00H
  00579	c1 e1 08	 shl	 ecx, 8
  0057c	0b c1		 or	 eax, ecx
  0057e	8b 4c 24 3c	 mov	 ecx, DWORD PTR chmask$3[rsp]
  00582	81 e1 00 00 ff
	00		 and	 ecx, 16711680		; 00ff0000H
  00588	c1 e9 08	 shr	 ecx, 8
  0058b	0b c1		 or	 eax, ecx
  0058d	8b 4c 24 3c	 mov	 ecx, DWORD PTR chmask$3[rsp]
  00591	c1 e9 18	 shr	 ecx, 24
  00594	81 e1 ff 00 00
	00		 and	 ecx, 255		; 000000ffH
  0059a	0b c1		 or	 eax, ecx
  0059c	48 8b 8c 24 90
	00 00 00	 mov	 rcx, QWORD PTR sfdat$[rsp]
  005a4	89 41 68	 mov	 DWORD PTR [rcx+104], eax
$LN55@wavReadHea:

; 2164 :                     /* TODO: recognize more speaker layouts! */
; 2165 :                     sfdat->chformat = get_speakerlayout(sfdat->fmt.dwChannelMask,sfdat->fmt.Format.nChannels);

  005a7	48 8b 84 24 90
	00 00 00	 mov	 rax, QWORD PTR sfdat$[rsp]
  005af	0f b7 40 52	 movzx	 eax, WORD PTR [rax+82]
  005b3	8b d0		 mov	 edx, eax
  005b5	48 8b 84 24 90
	00 00 00	 mov	 rax, QWORD PTR sfdat$[rsp]
  005bd	8b 48 68	 mov	 ecx, DWORD PTR [rax+104]
  005c0	e8 00 00 00 00	 call	 get_speakerlayout
  005c5	48 8b 8c 24 90
	00 00 00	 mov	 rcx, QWORD PTR sfdat$[rsp]
  005cd	89 41 7c	 mov	 DWORD PTR [rcx+124], eax

; 2166 : 					if(wavDoRead(sfdat,(char *) &(sfdat->fmt.SubFormat),sizeof(GUID)))

  005d0	48 8b 84 24 90
	00 00 00	 mov	 rax, QWORD PTR sfdat$[rsp]
  005d8	48 83 c0 6c	 add	 rax, 108		; 0000006cH
  005dc	41 b8 10 00 00
	00		 mov	 r8d, 16
  005e2	48 8b d0	 mov	 rdx, rax
  005e5	48 8b 8c 24 90
	00 00 00	 mov	 rcx, QWORD PTR sfdat$[rsp]
  005ed	e8 00 00 00 00	 call	 wavDoRead
  005f2	85 c0		 test	 eax, eax
  005f4	74 0a		 je	 SHORT $LN56@wavReadHea

; 2167 : 						return PSF_E_CANT_READ;

  005f6	b8 fc ff ff ff	 mov	 eax, -4
  005fb	e9 c3 06 00 00	 jmp	 $LN1@wavReadHea
$LN56@wavReadHea:

; 2168 : 					if(!sfdat->is_little_endian){

  00600	48 8b 84 24 90
	00 00 00	 mov	 rax, QWORD PTR sfdat$[rsp]
  00608	83 78 2c 00	 cmp	 DWORD PTR [rax+44], 0
  0060c	0f 85 ce 00 00
	00		 jne	 $LN57@wavReadHea

; 2169 : 						sfdat->fmt.SubFormat.Data1 = REVDWBYTES(sfdat->fmt.SubFormat.Data1);

  00612	48 8b 84 24 90
	00 00 00	 mov	 rax, QWORD PTR sfdat$[rsp]
  0061a	8b 40 6c	 mov	 eax, DWORD PTR [rax+108]
  0061d	25 ff 00 00 00	 and	 eax, 255		; 000000ffH
  00622	c1 e0 18	 shl	 eax, 24
  00625	48 8b 8c 24 90
	00 00 00	 mov	 rcx, QWORD PTR sfdat$[rsp]
  0062d	8b 49 6c	 mov	 ecx, DWORD PTR [rcx+108]
  00630	81 e1 00 ff 00
	00		 and	 ecx, 65280		; 0000ff00H
  00636	c1 e1 08	 shl	 ecx, 8
  00639	0b c1		 or	 eax, ecx
  0063b	48 8b 8c 24 90
	00 00 00	 mov	 rcx, QWORD PTR sfdat$[rsp]
  00643	8b 49 6c	 mov	 ecx, DWORD PTR [rcx+108]
  00646	81 e1 00 00 ff
	00		 and	 ecx, 16711680		; 00ff0000H
  0064c	c1 e9 08	 shr	 ecx, 8
  0064f	0b c1		 or	 eax, ecx
  00651	48 8b 8c 24 90
	00 00 00	 mov	 rcx, QWORD PTR sfdat$[rsp]
  00659	8b 49 6c	 mov	 ecx, DWORD PTR [rcx+108]
  0065c	c1 e9 18	 shr	 ecx, 24
  0065f	81 e1 ff 00 00
	00		 and	 ecx, 255		; 000000ffH
  00665	0b c1		 or	 eax, ecx
  00667	48 8b 8c 24 90
	00 00 00	 mov	 rcx, QWORD PTR sfdat$[rsp]
  0066f	89 41 6c	 mov	 DWORD PTR [rcx+108], eax

; 2170 : 						sfdat->fmt.SubFormat.Data2 = (WORD) REVWBYTES(sfdat->fmt.SubFormat.Data2);

  00672	48 8b 84 24 90
	00 00 00	 mov	 rax, QWORD PTR sfdat$[rsp]
  0067a	0f b7 40 70	 movzx	 eax, WORD PTR [rax+112]
  0067e	25 ff 00 00 00	 and	 eax, 255		; 000000ffH
  00683	c1 e0 08	 shl	 eax, 8
  00686	48 8b 8c 24 90
	00 00 00	 mov	 rcx, QWORD PTR sfdat$[rsp]
  0068e	0f b7 49 70	 movzx	 ecx, WORD PTR [rcx+112]
  00692	c1 f9 08	 sar	 ecx, 8
  00695	81 e1 ff 00 00
	00		 and	 ecx, 255		; 000000ffH
  0069b	0b c1		 or	 eax, ecx
  0069d	48 8b 8c 24 90
	00 00 00	 mov	 rcx, QWORD PTR sfdat$[rsp]
  006a5	66 89 41 70	 mov	 WORD PTR [rcx+112], ax

; 2171 : 						sfdat->fmt.SubFormat.Data3 = (WORD) REVWBYTES(sfdat->fmt.SubFormat.Data3);	

  006a9	48 8b 84 24 90
	00 00 00	 mov	 rax, QWORD PTR sfdat$[rsp]
  006b1	0f b7 40 72	 movzx	 eax, WORD PTR [rax+114]
  006b5	25 ff 00 00 00	 and	 eax, 255		; 000000ffH
  006ba	c1 e0 08	 shl	 eax, 8
  006bd	48 8b 8c 24 90
	00 00 00	 mov	 rcx, QWORD PTR sfdat$[rsp]
  006c5	0f b7 49 72	 movzx	 ecx, WORD PTR [rcx+114]
  006c9	c1 f9 08	 sar	 ecx, 8
  006cc	81 e1 ff 00 00
	00		 and	 ecx, 255		; 000000ffH
  006d2	0b c1		 or	 eax, ecx
  006d4	48 8b 8c 24 90
	00 00 00	 mov	 rcx, QWORD PTR sfdat$[rsp]
  006dc	66 89 41 72	 mov	 WORD PTR [rcx+114], ax
$LN57@wavReadHea:

; 2172 : 					}
; 2173 : 					/* if we get a good GUID, this sets up sfdat with samplesize info */
; 2174 : 					if(check_guid(sfdat))											

  006e0	48 8b 8c 24 90
	00 00 00	 mov	 rcx, QWORD PTR sfdat$[rsp]
  006e8	e8 00 00 00 00	 call	 check_guid
  006ed	85 c0		 test	 eax, eax
  006ef	74 0a		 je	 SHORT $LN58@wavReadHea

; 2175 : 						return PSF_E_UNSUPPORTED;

  006f1	b8 f8 ff ff ff	 mov	 eax, -8
  006f6	e9 c8 05 00 00	 jmp	 $LN1@wavReadHea
$LN58@wavReadHea:
$LN51@wavReadHea:
$LN40@wavReadHea:

; 2176 : 				}
; 2177 : 			}			
; 2178 : 			break;

  006fb	e9 be 05 00 00	 jmp	 $LN5@wavReadHea
$LN59@wavReadHea:

; 2179 : 		case(TAG('P','E','A','K')):	
; 2180 :             /* I SHOULD  report an error if this is after data chunk; 
; 2181 :                but I suppose innocent users (e.g. of Cubase ) will grumble... */
; 2182 :             if(wavDoRead(sfdat,(char  *) &version,sizeof(DWORD)))

  00700	41 b8 04 00 00
	00		 mov	 r8d, 4
  00706	48 8d 54 24 30	 lea	 rdx, QWORD PTR version$[rsp]
  0070b	48 8b 8c 24 90
	00 00 00	 mov	 rcx, QWORD PTR sfdat$[rsp]
  00713	e8 00 00 00 00	 call	 wavDoRead
  00718	85 c0		 test	 eax, eax
  0071a	74 0a		 je	 SHORT $LN60@wavReadHea

; 2183 : 				return PSF_E_CANT_READ;

  0071c	b8 fc ff ff ff	 mov	 eax, -4
  00721	e9 9d 05 00 00	 jmp	 $LN1@wavReadHea
$LN60@wavReadHea:

; 2184 :             if(!sfdat->is_little_endian)				

  00726	48 8b 84 24 90
	00 00 00	 mov	 rax, QWORD PTR sfdat$[rsp]
  0072e	83 78 2c 00	 cmp	 DWORD PTR [rax+44], 0
  00732	75 3d		 jne	 SHORT $LN61@wavReadHea

; 2185 : 				version = REVDWBYTES(version);		            

  00734	8b 44 24 30	 mov	 eax, DWORD PTR version$[rsp]
  00738	25 ff 00 00 00	 and	 eax, 255		; 000000ffH
  0073d	c1 e0 18	 shl	 eax, 24
  00740	8b 4c 24 30	 mov	 ecx, DWORD PTR version$[rsp]
  00744	81 e1 00 ff 00
	00		 and	 ecx, 65280		; 0000ff00H
  0074a	c1 e1 08	 shl	 ecx, 8
  0074d	0b c1		 or	 eax, ecx
  0074f	8b 4c 24 30	 mov	 ecx, DWORD PTR version$[rsp]
  00753	81 e1 00 00 ff
	00		 and	 ecx, 16711680		; 00ff0000H
  00759	c1 e9 08	 shr	 ecx, 8
  0075c	0b c1		 or	 eax, ecx
  0075e	8b 4c 24 30	 mov	 ecx, DWORD PTR version$[rsp]
  00762	c1 e9 18	 shr	 ecx, 24
  00765	81 e1 ff 00 00
	00		 and	 ecx, 255		; 000000ffH
  0076b	0b c1		 or	 eax, ecx
  0076d	89 44 24 30	 mov	 DWORD PTR version$[rsp], eax
$LN61@wavReadHea:

; 2186 :             if(version != 1) {

  00771	83 7c 24 30 01	 cmp	 DWORD PTR version$[rsp], 1
  00776	74 0a		 je	 SHORT $LN62@wavReadHea

; 2187 :                 DBGFPRINTF((stderr, "Unexpected version level for PEAK chunk!\n"));
; 2188 : 					return PSF_E_UNSUPPORTED;

  00778	b8 f8 ff ff ff	 mov	 eax, -8
  0077d	e9 41 05 00 00	 jmp	 $LN1@wavReadHea
$LN62@wavReadHea:

; 2189 :             }
; 2190 :             if(size != (2 * sizeof(DWORD) + sizeof(PSF_CHPEAK) * sfdat->fmt.Format.nChannels)) {

  00782	8b 44 24 24	 mov	 eax, DWORD PTR size$[rsp]
  00786	48 8b 8c 24 90
	00 00 00	 mov	 rcx, QWORD PTR sfdat$[rsp]
  0078e	0f b7 49 52	 movzx	 ecx, WORD PTR [rcx+82]
  00792	48 8d 0c cd 08
	00 00 00	 lea	 rcx, QWORD PTR [rcx*8+8]
  0079a	48 3b c1	 cmp	 rax, rcx
  0079d	74 0a		 je	 SHORT $LN63@wavReadHea

; 2191 :                 DBGFPRINTF((stderr, "\nBad size for PEAK chunk\n"));
; 2192 : 				return PSF_E_BAD_FORMAT;

  0079f	b8 f9 ff ff ff	 mov	 eax, -7
  007a4	e9 1a 05 00 00	 jmp	 $LN1@wavReadHea
$LN63@wavReadHea:

; 2193 :             }
; 2194 : 			if(fgetpos(sfdat->file,&bytepos))

  007a9	48 8d 54 24 68	 lea	 rdx, QWORD PTR bytepos$[rsp]
  007ae	48 8b 84 24 90
	00 00 00	 mov	 rax, QWORD PTR sfdat$[rsp]
  007b6	48 8b 08	 mov	 rcx, QWORD PTR [rax]
  007b9	e8 00 00 00 00	 call	 fgetpos
  007be	85 c0		 test	 eax, eax
  007c0	74 0a		 je	 SHORT $LN64@wavReadHea

; 2195 : 			    return PSF_E_CANT_SEEK;

  007c2	b8 f5 ff ff ff	 mov	 eax, -11
  007c7	e9 f7 04 00 00	 jmp	 $LN1@wavReadHea
$LN64@wavReadHea:

; 2196 : 			sfdat->peakoffset = bytepos;

  007cc	48 8b 84 24 90
	00 00 00	 mov	 rax, QWORD PTR sfdat$[rsp]
  007d4	48 8b 4c 24 68	 mov	 rcx, QWORD PTR bytepos$[rsp]
  007d9	48 89 48 48	 mov	 QWORD PTR [rax+72], rcx

; 2197 :             if(wavDoRead(sfdat,(char *) &peaktime,sizeof(DWORD))){				

  007dd	41 b8 04 00 00
	00		 mov	 r8d, 4
  007e3	48 8d 54 24 34	 lea	 rdx, QWORD PTR peaktime$[rsp]
  007e8	48 8b 8c 24 90
	00 00 00	 mov	 rcx, QWORD PTR sfdat$[rsp]
  007f0	e8 00 00 00 00	 call	 wavDoRead
  007f5	85 c0		 test	 eax, eax
  007f7	74 0a		 je	 SHORT $LN65@wavReadHea

; 2198 : 			    DBGFPRINTF((stderr,"Error reading PEAK time\n"));
; 2199 :                 return PSF_E_CANT_READ;

  007f9	b8 fc ff ff ff	 mov	 eax, -4
  007fe	e9 c0 04 00 00	 jmp	 $LN1@wavReadHea
$LN65@wavReadHea:

; 2200 :             }
; 2201 :             if(!sfdat->is_little_endian)

  00803	48 8b 84 24 90
	00 00 00	 mov	 rax, QWORD PTR sfdat$[rsp]
  0080b	83 78 2c 00	 cmp	 DWORD PTR [rax+44], 0
  0080f	75 3d		 jne	 SHORT $LN66@wavReadHea

; 2202 :                 peaktime = REVDWBYTES(peaktime);

  00811	8b 44 24 34	 mov	 eax, DWORD PTR peaktime$[rsp]
  00815	25 ff 00 00 00	 and	 eax, 255		; 000000ffH
  0081a	c1 e0 18	 shl	 eax, 24
  0081d	8b 4c 24 34	 mov	 ecx, DWORD PTR peaktime$[rsp]
  00821	81 e1 00 ff 00
	00		 and	 ecx, 65280		; 0000ff00H
  00827	c1 e1 08	 shl	 ecx, 8
  0082a	0b c1		 or	 eax, ecx
  0082c	8b 4c 24 34	 mov	 ecx, DWORD PTR peaktime$[rsp]
  00830	81 e1 00 00 ff
	00		 and	 ecx, 16711680		; 00ff0000H
  00836	c1 e9 08	 shr	 ecx, 8
  00839	0b c1		 or	 eax, ecx
  0083b	8b 4c 24 34	 mov	 ecx, DWORD PTR peaktime$[rsp]
  0083f	c1 e9 18	 shr	 ecx, 24
  00842	81 e1 ff 00 00
	00		 and	 ecx, 255		; 000000ffH
  00848	0b c1		 or	 eax, ecx
  0084a	89 44 24 34	 mov	 DWORD PTR peaktime$[rsp], eax
$LN66@wavReadHea:

; 2203 :             sfdat->peaktime = (time_t) peaktime;

  0084e	8b 44 24 34	 mov	 eax, DWORD PTR peaktime$[rsp]
  00852	48 8b 8c 24 90
	00 00 00	 mov	 rcx, QWORD PTR sfdat$[rsp]
  0085a	48 89 81 88 00
	00 00		 mov	 QWORD PTR [rcx+136], rax

; 2204 :             sfdat->pPeaks = (PSF_CHPEAK *) malloc(sizeof(PSF_CHPEAK) * sfdat->fmt.Format.nChannels);

  00861	48 8b 84 24 90
	00 00 00	 mov	 rax, QWORD PTR sfdat$[rsp]
  00869	0f b7 40 52	 movzx	 eax, WORD PTR [rax+82]
  0086d	48 c1 e0 03	 shl	 rax, 3
  00871	48 8b c8	 mov	 rcx, rax
  00874	e8 00 00 00 00	 call	 malloc
  00879	48 8b 8c 24 90
	00 00 00	 mov	 rcx, QWORD PTR sfdat$[rsp]
  00881	48 89 81 80 00
	00 00		 mov	 QWORD PTR [rcx+128], rax

; 2205 : 			if(sfdat->pPeaks==NULL){

  00888	48 8b 84 24 90
	00 00 00	 mov	 rax, QWORD PTR sfdat$[rsp]
  00890	48 83 b8 80 00
	00 00 00	 cmp	 QWORD PTR [rax+128], 0
  00898	75 0a		 jne	 SHORT $LN67@wavReadHea

; 2206 : 				DBGFPRINTF((stderr, "wavOpenWrite: no memory for peak data\n"));
; 2207 : 				return PSF_E_NOMEM;

  0089a	b8 f7 ff ff ff	 mov	 eax, -9
  0089f	e9 1f 04 00 00	 jmp	 $LN1@wavReadHea
$LN67@wavReadHea:

; 2208 : 			}
; 2209 :             if(wavDoRead(sfdat,(char *) sfdat->pPeaks,sizeof(PSF_CHPEAK) * sfdat->fmt.Format.nChannels)) {

  008a4	48 8b 84 24 90
	00 00 00	 mov	 rax, QWORD PTR sfdat$[rsp]
  008ac	0f b7 40 52	 movzx	 eax, WORD PTR [rax+82]
  008b0	48 c1 e0 03	 shl	 rax, 3
  008b4	44 8b c0	 mov	 r8d, eax
  008b7	48 8b 84 24 90
	00 00 00	 mov	 rax, QWORD PTR sfdat$[rsp]
  008bf	48 8b 90 80 00
	00 00		 mov	 rdx, QWORD PTR [rax+128]
  008c6	48 8b 8c 24 90
	00 00 00	 mov	 rcx, QWORD PTR sfdat$[rsp]
  008ce	e8 00 00 00 00	 call	 wavDoRead
  008d3	85 c0		 test	 eax, eax
  008d5	74 0a		 je	 SHORT $LN68@wavReadHea

; 2210 :                 DBGFPRINTF((stderr,"Error reading PEAK peak data\n"));
; 2211 : 				return PSF_E_CANT_READ;

  008d7	b8 fc ff ff ff	 mov	 eax, -4
  008dc	e9 e2 03 00 00	 jmp	 $LN1@wavReadHea
$LN68@wavReadHea:

; 2212 :             }
; 2213 : 			if(!sfdat->is_little_endian){

  008e1	48 8b 84 24 90
	00 00 00	 mov	 rax, QWORD PTR sfdat$[rsp]
  008e9	83 78 2c 00	 cmp	 DWORD PTR [rax+44], 0
  008ed	0f 85 ab 00 00
	00		 jne	 $LN69@wavReadHea

; 2214 :                 DWORD *pBlock;
; 2215 : 				int i;			
; 2216 : 				pBlock = (DWORD *) (sfdat->pPeaks);

  008f3	48 8b 84 24 90
	00 00 00	 mov	 rax, QWORD PTR sfdat$[rsp]
  008fb	48 8b 80 80 00
	00 00		 mov	 rax, QWORD PTR [rax+128]
  00902	48 89 44 24 60	 mov	 QWORD PTR pBlock$8[rsp], rax

; 2217 : 				for(i=0;i < sfdat->fmt.Format.nChannels * 2; i++)

  00907	c7 44 24 2c 00
	00 00 00	 mov	 DWORD PTR i$1[rsp], 0
  0090f	eb 0a		 jmp	 SHORT $LN11@wavReadHea
$LN9@wavReadHea:
  00911	8b 44 24 2c	 mov	 eax, DWORD PTR i$1[rsp]
  00915	ff c0		 inc	 eax
  00917	89 44 24 2c	 mov	 DWORD PTR i$1[rsp], eax
$LN11@wavReadHea:
  0091b	48 8b 84 24 90
	00 00 00	 mov	 rax, QWORD PTR sfdat$[rsp]
  00923	0f b7 40 52	 movzx	 eax, WORD PTR [rax+82]
  00927	d1 e0		 shl	 eax, 1
  00929	39 44 24 2c	 cmp	 DWORD PTR i$1[rsp], eax
  0092d	7d 6f		 jge	 SHORT $LN10@wavReadHea

; 2218 : 					pBlock[i] = REVDWBYTES(pBlock[i]);

  0092f	48 63 44 24 2c	 movsxd	 rax, DWORD PTR i$1[rsp]
  00934	48 8b 4c 24 60	 mov	 rcx, QWORD PTR pBlock$8[rsp]
  00939	8b 04 81	 mov	 eax, DWORD PTR [rcx+rax*4]
  0093c	25 ff 00 00 00	 and	 eax, 255		; 000000ffH
  00941	c1 e0 18	 shl	 eax, 24
  00944	48 63 4c 24 2c	 movsxd	 rcx, DWORD PTR i$1[rsp]
  00949	48 8b 54 24 60	 mov	 rdx, QWORD PTR pBlock$8[rsp]
  0094e	8b 0c 8a	 mov	 ecx, DWORD PTR [rdx+rcx*4]
  00951	81 e1 00 ff 00
	00		 and	 ecx, 65280		; 0000ff00H
  00957	c1 e1 08	 shl	 ecx, 8
  0095a	0b c1		 or	 eax, ecx
  0095c	48 63 4c 24 2c	 movsxd	 rcx, DWORD PTR i$1[rsp]
  00961	48 8b 54 24 60	 mov	 rdx, QWORD PTR pBlock$8[rsp]
  00966	8b 0c 8a	 mov	 ecx, DWORD PTR [rdx+rcx*4]
  00969	81 e1 00 00 ff
	00		 and	 ecx, 16711680		; 00ff0000H
  0096f	c1 e9 08	 shr	 ecx, 8
  00972	0b c1		 or	 eax, ecx
  00974	48 63 4c 24 2c	 movsxd	 rcx, DWORD PTR i$1[rsp]
  00979	48 8b 54 24 60	 mov	 rdx, QWORD PTR pBlock$8[rsp]
  0097e	8b 0c 8a	 mov	 ecx, DWORD PTR [rdx+rcx*4]
  00981	c1 e9 18	 shr	 ecx, 24
  00984	81 e1 ff 00 00
	00		 and	 ecx, 255		; 000000ffH
  0098a	0b c1		 or	 eax, ecx
  0098c	48 63 4c 24 2c	 movsxd	 rcx, DWORD PTR i$1[rsp]
  00991	48 8b 54 24 60	 mov	 rdx, QWORD PTR pBlock$8[rsp]
  00996	89 04 8a	 mov	 DWORD PTR [rdx+rcx*4], eax
  00999	e9 73 ff ff ff	 jmp	 $LN9@wavReadHea
$LN10@wavReadHea:
$LN69@wavReadHea:

; 2219 : 			}            
; 2220 : 			break;

  0099e	e9 1b 03 00 00	 jmp	 $LN5@wavReadHea
$LN70@wavReadHea:

; 2221 : 		case(TAG('d','a','t','a')):
; 2222 : 			if(fgetpos(sfdat->file,&bytepos))

  009a3	48 8d 54 24 68	 lea	 rdx, QWORD PTR bytepos$[rsp]
  009a8	48 8b 84 24 90
	00 00 00	 mov	 rax, QWORD PTR sfdat$[rsp]
  009b0	48 8b 08	 mov	 rcx, QWORD PTR [rax]
  009b3	e8 00 00 00 00	 call	 fgetpos
  009b8	85 c0		 test	 eax, eax
  009ba	74 0a		 je	 SHORT $LN71@wavReadHea

; 2223 : 			    return PSF_E_CANT_SEEK;

  009bc	b8 f5 ff ff ff	 mov	 eax, -11
  009c1	e9 fd 02 00 00	 jmp	 $LN1@wavReadHea
$LN71@wavReadHea:

; 2224 : 			sfdat->dataoffset = bytepos;

  009c6	48 8b 84 24 90
	00 00 00	 mov	 rax, QWORD PTR sfdat$[rsp]
  009ce	48 8b 4c 24 68	 mov	 rcx, QWORD PTR bytepos$[rsp]
  009d3	48 89 48 38	 mov	 QWORD PTR [rax+56], rcx

; 2225 : 			if(POS64(sfdat->fmtoffset)==0)

  009d7	48 8b 84 24 90
	00 00 00	 mov	 rax, QWORD PTR sfdat$[rsp]
  009df	48 83 78 40 00	 cmp	 QWORD PTR [rax+64], 0
  009e4	75 0a		 jne	 SHORT $LN72@wavReadHea

; 2226 : 				return PSF_E_BAD_FORMAT;

  009e6	b8 f9 ff ff ff	 mov	 eax, -7
  009eb	e9 d3 02 00 00	 jmp	 $LN1@wavReadHea
$LN72@wavReadHea:

; 2227 : 			sfdat->nFrames = size / sfdat->fmt.Format.nBlockAlign;			

  009f0	48 8b 84 24 90
	00 00 00	 mov	 rax, QWORD PTR sfdat$[rsp]
  009f8	0f b7 40 5c	 movzx	 eax, WORD PTR [rax+92]
  009fc	89 44 24 70	 mov	 DWORD PTR tv462[rsp], eax
  00a00	33 d2		 xor	 edx, edx
  00a02	8b 44 24 24	 mov	 eax, DWORD PTR size$[rsp]
  00a06	8b 4c 24 70	 mov	 ecx, DWORD PTR tv462[rsp]
  00a0a	f7 f1		 div	 ecx
  00a0c	48 8b 8c 24 90
	00 00 00	 mov	 rcx, QWORD PTR sfdat$[rsp]
  00a14	89 41 14	 mov	 DWORD PTR [rcx+20], eax

; 2228 : 			/* get rescale factor if available */
; 2229 : 			/* NB in correct format, val is always >= 0.0 */
; 2230 : 			if(sfdat->pPeaks && POS64(sfdat->peakoffset) != 0){

  00a17	48 8b 84 24 90
	00 00 00	 mov	 rax, QWORD PTR sfdat$[rsp]
  00a1f	48 83 b8 80 00
	00 00 00	 cmp	 QWORD PTR [rax+128], 0
  00a27	0f 84 cb 00 00
	00		 je	 $LN73@wavReadHea
  00a2d	48 8b 84 24 90
	00 00 00	 mov	 rax, QWORD PTR sfdat$[rsp]
  00a35	48 83 78 48 00	 cmp	 QWORD PTR [rax+72], 0
  00a3a	0f 84 b8 00 00
	00		 je	 $LN73@wavReadHea

; 2231 : 				float fac = 0.0f;

  00a40	0f 57 c0	 xorps	 xmm0, xmm0
  00a43	f3 0f 11 44 24
	44		 movss	 DWORD PTR fac$5[rsp], xmm0

; 2232 : 				int i;
; 2233 : 				for(i=0;i < sfdat->fmt.Format.nChannels; i++)

  00a49	c7 44 24 40 00
	00 00 00	 mov	 DWORD PTR i$4[rsp], 0
  00a51	eb 0a		 jmp	 SHORT $LN14@wavReadHea
$LN12@wavReadHea:
  00a53	8b 44 24 40	 mov	 eax, DWORD PTR i$4[rsp]
  00a57	ff c0		 inc	 eax
  00a59	89 44 24 40	 mov	 DWORD PTR i$4[rsp], eax
$LN14@wavReadHea:
  00a5d	48 8b 84 24 90
	00 00 00	 mov	 rax, QWORD PTR sfdat$[rsp]
  00a65	0f b7 40 52	 movzx	 eax, WORD PTR [rax+82]
  00a69	39 44 24 40	 cmp	 DWORD PTR i$4[rsp], eax
  00a6d	7d 5f		 jge	 SHORT $LN13@wavReadHea

; 2234 : 					fac = max(fac,sfdat->pPeaks[i].val);

  00a6f	48 63 44 24 40	 movsxd	 rax, DWORD PTR i$4[rsp]
  00a74	48 8b 8c 24 90
	00 00 00	 mov	 rcx, QWORD PTR sfdat$[rsp]
  00a7c	48 8b 89 80 00
	00 00		 mov	 rcx, QWORD PTR [rcx+128]
  00a83	f3 0f 10 04 c1	 movss	 xmm0, DWORD PTR [rcx+rax*8]
  00a88	f3 0f 10 4c 24
	44		 movss	 xmm1, DWORD PTR fac$5[rsp]
  00a8e	0f 2f c8	 comiss	 xmm1, xmm0
  00a91	76 0e		 jbe	 SHORT $LN92@wavReadHea
  00a93	f3 0f 10 44 24
	44		 movss	 xmm0, DWORD PTR fac$5[rsp]
  00a99	f3 0f 11 44 24
	5c		 movss	 DWORD PTR tv485[rsp], xmm0
  00a9f	eb 1f		 jmp	 SHORT $LN93@wavReadHea
$LN92@wavReadHea:
  00aa1	48 63 44 24 40	 movsxd	 rax, DWORD PTR i$4[rsp]
  00aa6	48 8b 8c 24 90
	00 00 00	 mov	 rcx, QWORD PTR sfdat$[rsp]
  00aae	48 8b 89 80 00
	00 00		 mov	 rcx, QWORD PTR [rcx+128]
  00ab5	f3 0f 10 04 c1	 movss	 xmm0, DWORD PTR [rcx+rax*8]
  00aba	f3 0f 11 44 24
	5c		 movss	 DWORD PTR tv485[rsp], xmm0
$LN93@wavReadHea:
  00ac0	f3 0f 10 44 24
	5c		 movss	 xmm0, DWORD PTR tv485[rsp]
  00ac6	f3 0f 11 44 24
	44		 movss	 DWORD PTR fac$5[rsp], xmm0
  00acc	eb 85		 jmp	 SHORT $LN12@wavReadHea
$LN13@wavReadHea:

; 2235 : 				if(fac > 1.0f)

  00ace	f3 0f 10 44 24
	44		 movss	 xmm0, DWORD PTR fac$5[rsp]
  00ad4	0f 2f 05 00 00
	00 00		 comiss	 xmm0, DWORD PTR __real@3f800000
  00adb	76 1b		 jbe	 SHORT $LN74@wavReadHea

; 2236 : 					sfdat->rescale_fac = 1.0f / fac;

  00add	f3 0f 10 05 00
	00 00 00	 movss	 xmm0, DWORD PTR __real@3f800000
  00ae5	f3 0f 5e 44 24
	44		 divss	 xmm0, DWORD PTR fac$5[rsp]
  00aeb	48 8b 84 24 90
	00 00 00	 mov	 rax, QWORD PTR sfdat$[rsp]
  00af3	f3 0f 11 40 24	 movss	 DWORD PTR [rax+36], xmm0
$LN74@wavReadHea:
$LN73@wavReadHea:

; 2237 : 			}
; 2238 : 			/* set sampletype */
; 2239 : 			switch(sfdat->fmt.Format.wFormatTag){

  00af8	48 8b 84 24 90
	00 00 00	 mov	 rax, QWORD PTR sfdat$[rsp]
  00b00	0f b7 40 50	 movzx	 eax, WORD PTR [rax+80]
  00b04	89 44 24 58	 mov	 DWORD PTR tv491[rsp], eax
  00b08	83 7c 24 58 01	 cmp	 DWORD PTR tv491[rsp], 1
  00b0d	74 77		 je	 SHORT $LN79@wavReadHea
  00b0f	83 7c 24 58 03	 cmp	 DWORD PTR tv491[rsp], 3
  00b14	74 0f		 je	 SHORT $LN75@wavReadHea
  00b16	81 7c 24 58 fe
	ff 00 00	 cmp	 DWORD PTR tv491[rsp], 65534 ; 0000fffeH
  00b1e	74 66		 je	 SHORT $LN79@wavReadHea
  00b20	e9 74 01 00 00	 jmp	 $LN15@wavReadHea
$LN75@wavReadHea:

; 2240 : 			case(WAVE_FORMAT_IEEE_FLOAT):
; 2241 : 				sfdat->samptype = PSF_SAMP_IEEE_FLOAT;

  00b25	48 8b 84 24 90
	00 00 00	 mov	 rax, QWORD PTR sfdat$[rsp]
  00b2d	c7 40 30 05 00
	00 00		 mov	 DWORD PTR [rax+48], 5

; 2242 : 				if(sfdat->fmt.Format.wBitsPerSample != 32) {

  00b34	48 8b 84 24 90
	00 00 00	 mov	 rax, QWORD PTR sfdat$[rsp]
  00b3c	0f b7 40 5e	 movzx	 eax, WORD PTR [rax+94]
  00b40	83 f8 20	 cmp	 eax, 32			; 00000020H
  00b43	74 28		 je	 SHORT $LN76@wavReadHea

; 2243 : 					/*return PSF_E_BAD_FORMAT;*/
; 2244 : 					if(sfdat->fmt.Format.wBitsPerSample == sizeof(double))

  00b45	48 8b 84 24 90
	00 00 00	 mov	 rax, QWORD PTR sfdat$[rsp]
  00b4d	0f b7 40 5e	 movzx	 eax, WORD PTR [rax+94]
  00b51	48 83 f8 08	 cmp	 rax, 8
  00b55	75 0c		 jne	 SHORT $LN77@wavReadHea

; 2245 : 						return PSF_E_UNSUPPORTED;			

  00b57	b8 f8 ff ff ff	 mov	 eax, -8
  00b5c	e9 62 01 00 00	 jmp	 $LN1@wavReadHea
  00b61	eb 0a		 jmp	 SHORT $LN78@wavReadHea
$LN77@wavReadHea:

; 2246 : 					else
; 2247 : 					    return PSF_E_BAD_FORMAT;

  00b63	b8 f9 ff ff ff	 mov	 eax, -7
  00b68	e9 56 01 00 00	 jmp	 $LN1@wavReadHea
$LN78@wavReadHea:
$LN76@wavReadHea:

; 2248 : 				}
; 2249 : 				sfdat->lastop  = PSF_OP_READ;

  00b6d	48 8b 84 24 90
	00 00 00	 mov	 rax, QWORD PTR sfdat$[rsp]
  00b75	c7 80 98 00 00
	00 00 00 00 00	 mov	 DWORD PTR [rax+152], 0

; 2250 : 				return PSF_E_NOERROR;

  00b7f	33 c0		 xor	 eax, eax
  00b81	e9 3d 01 00 00	 jmp	 $LN1@wavReadHea
$LN79@wavReadHea:

; 2251 : 			case(WAVE_FORMAT_PCM):
; 2252 : 			case(WAVE_FORMAT_EXTENSIBLE):
; 2253 : 				switch(sfdat->fmt.Format.wBitsPerSample){

  00b86	48 8b 84 24 90
	00 00 00	 mov	 rax, QWORD PTR sfdat$[rsp]
  00b8e	0f b7 40 5e	 movzx	 eax, WORD PTR [rax+94]
  00b92	89 44 24 48	 mov	 DWORD PTR tv502[rsp], eax
  00b96	83 7c 24 48 08	 cmp	 DWORD PTR tv502[rsp], 8
  00b9b	74 1a		 je	 SHORT $LN80@wavReadHea
  00b9d	83 7c 24 48 10	 cmp	 DWORD PTR tv502[rsp], 16
  00ba2	74 27		 je	 SHORT $LN81@wavReadHea
  00ba4	83 7c 24 48 18	 cmp	 DWORD PTR tv502[rsp], 24
  00ba9	74 34		 je	 SHORT $LN82@wavReadHea
  00bab	83 7c 24 48 20	 cmp	 DWORD PTR tv502[rsp], 32 ; 00000020H
  00bb0	74 3e		 je	 SHORT $LN83@wavReadHea
  00bb2	e9 a8 00 00 00	 jmp	 $LN87@wavReadHea
$LN80@wavReadHea:

; 2254 : 				case(8):
; 2255 : 					sfdat->samptype = PSF_SAMP_8;

  00bb7	48 8b 84 24 90
	00 00 00	 mov	 rax, QWORD PTR sfdat$[rsp]
  00bbf	c7 40 30 01 00
	00 00		 mov	 DWORD PTR [rax+48], 1

; 2256 : 					break;

  00bc6	e9 a3 00 00 00	 jmp	 $LN17@wavReadHea
$LN81@wavReadHea:

; 2257 : 				case(16):
; 2258 : 					sfdat->samptype = PSF_SAMP_16;

  00bcb	48 8b 84 24 90
	00 00 00	 mov	 rax, QWORD PTR sfdat$[rsp]
  00bd3	c7 40 30 02 00
	00 00		 mov	 DWORD PTR [rax+48], 2

; 2259 : 					break;

  00bda	e9 8f 00 00 00	 jmp	 $LN17@wavReadHea
$LN82@wavReadHea:

; 2260 : 				case(24):
; 2261 : 					sfdat->samptype = PSF_SAMP_24;

  00bdf	48 8b 84 24 90
	00 00 00	 mov	 rax, QWORD PTR sfdat$[rsp]
  00be7	c7 40 30 03 00
	00 00		 mov	 DWORD PTR [rax+48], 3

; 2262 : 					break;

  00bee	eb 7e		 jmp	 SHORT $LN17@wavReadHea
$LN83@wavReadHea:

; 2263 : 				case(32):
; 2264 : 					sfdat->samptype = PSF_SAMP_32;

  00bf0	48 8b 84 24 90
	00 00 00	 mov	 rax, QWORD PTR sfdat$[rsp]
  00bf8	c7 40 30 04 00
	00 00		 mov	 DWORD PTR [rax+48], 4

; 2265 : 					if(compare_guids(&(sfdat->fmt.SubFormat),&KSDATAFORMAT_SUBTYPE_IEEE_FLOAT))

  00bff	48 8b 84 24 90
	00 00 00	 mov	 rax, QWORD PTR sfdat$[rsp]
  00c07	48 83 c0 6c	 add	 rax, 108		; 0000006cH
  00c0b	48 8d 15 00 00
	00 00		 lea	 rdx, OFFSET FLAT:KSDATAFORMAT_SUBTYPE_IEEE_FLOAT
  00c12	48 8b c8	 mov	 rcx, rax
  00c15	e8 00 00 00 00	 call	 compare_guids
  00c1a	85 c0		 test	 eax, eax
  00c1c	74 11		 je	 SHORT $LN84@wavReadHea

; 2266 : 						sfdat->samptype = PSF_SAMP_IEEE_FLOAT;

  00c1e	48 8b 84 24 90
	00 00 00	 mov	 rax, QWORD PTR sfdat$[rsp]
  00c26	c7 40 30 05 00
	00 00		 mov	 DWORD PTR [rax+48], 5
  00c2d	eb 2e		 jmp	 SHORT $LN85@wavReadHea
$LN84@wavReadHea:

; 2267 : 					else if(!compare_guids(&(sfdat->fmt.SubFormat),&KSDATAFORMAT_SUBTYPE_PCM))

  00c2f	48 8b 84 24 90
	00 00 00	 mov	 rax, QWORD PTR sfdat$[rsp]
  00c37	48 83 c0 6c	 add	 rax, 108		; 0000006cH
  00c3b	48 8d 15 00 00
	00 00		 lea	 rdx, OFFSET FLAT:KSDATAFORMAT_SUBTYPE_PCM
  00c42	48 8b c8	 mov	 rcx, rax
  00c45	e8 00 00 00 00	 call	 compare_guids
  00c4a	85 c0		 test	 eax, eax
  00c4c	75 0f		 jne	 SHORT $LN86@wavReadHea

; 2268 : 						sfdat->samptype = PSF_SAMP_UNKNOWN;

  00c4e	48 8b 84 24 90
	00 00 00	 mov	 rax, QWORD PTR sfdat$[rsp]
  00c56	c7 40 30 00 00
	00 00		 mov	 DWORD PTR [rax+48], 0
$LN86@wavReadHea:
$LN85@wavReadHea:

; 2269 : 					break;

  00c5d	eb 0f		 jmp	 SHORT $LN17@wavReadHea
$LN87@wavReadHea:

; 2270 : 				default:
; 2271 : 					sfdat->samptype = PSF_SAMP_UNKNOWN;

  00c5f	48 8b 84 24 90
	00 00 00	 mov	 rax, QWORD PTR sfdat$[rsp]
  00c67	c7 40 30 00 00
	00 00		 mov	 DWORD PTR [rax+48], 0
$LN17@wavReadHea:

; 2272 : 					break;					
; 2273 : 				}				
; 2274 : 				if(sfdat->samptype == PSF_SAMP_UNKNOWN)

  00c6e	48 8b 84 24 90
	00 00 00	 mov	 rax, QWORD PTR sfdat$[rsp]
  00c76	83 78 30 00	 cmp	 DWORD PTR [rax+48], 0
  00c7a	75 07		 jne	 SHORT $LN88@wavReadHea

; 2275 : 					return PSF_E_UNSUPPORTED;

  00c7c	b8 f8 ff ff ff	 mov	 eax, -8
  00c81	eb 40		 jmp	 SHORT $LN1@wavReadHea
$LN88@wavReadHea:

; 2276 : 				sfdat->lastop  = PSF_OP_READ;

  00c83	48 8b 84 24 90
	00 00 00	 mov	 rax, QWORD PTR sfdat$[rsp]
  00c8b	c7 80 98 00 00
	00 00 00 00 00	 mov	 DWORD PTR [rax+152], 0

; 2277 : 				return PSF_E_NOERROR;

  00c95	33 c0		 xor	 eax, eax
  00c97	eb 2a		 jmp	 SHORT $LN1@wavReadHea
$LN15@wavReadHea:
$LN89@wavReadHea:

; 2278 : 			}					
; 2279 : 			default:
; 2280 : 			/* unknown chunk - skip */
; 2281 : 			if(fseek(sfdat->file,size,SEEK_CUR))

  00c99	41 b8 01 00 00
	00		 mov	 r8d, 1
  00c9f	8b 54 24 24	 mov	 edx, DWORD PTR size$[rsp]
  00ca3	48 8b 84 24 90
	00 00 00	 mov	 rax, QWORD PTR sfdat$[rsp]
  00cab	48 8b 08	 mov	 rcx, QWORD PTR [rax]
  00cae	e8 00 00 00 00	 call	 fseek
  00cb3	85 c0		 test	 eax, eax
  00cb5	74 07		 je	 SHORT $LN90@wavReadHea

; 2282 : 				return PSF_E_CANT_READ;

  00cb7	b8 fc ff ff ff	 mov	 eax, -4
  00cbc	eb 05		 jmp	 SHORT $LN1@wavReadHea
$LN90@wavReadHea:
$LN5@wavReadHea:

; 2283 : 			break;
; 2284 : 		}
; 2285 : 	}

  00cbe	e9 e5 f4 ff ff	 jmp	 $LN2@wavReadHea
$LN1@wavReadHea:

; 2286 : }

  00cc3	48 81 c4 88 00
	00 00		 add	 rsp, 136		; 00000088H
  00cca	c3		 ret	 0
wavReadHeader ENDP
_TEXT	ENDS
; Function compile flags: /Odtp
; File k:\audio\editing\current\programming\the_audio_programming_book\test_code\misc\psfmaster\portsf\portsf.c
_TEXT	SEGMENT
tag$ = 32
size$ = 36
wData$ = 40
ID_compression$ = 44
aifcver$ = 48
version$1 = 52
pstring_size$ = 56
offset$ = 60
blocksize$ = 64
bytepos$ = 72
dwData$ = 80
now$2 = 84
str_compressed$ = 88
peaks$ = 96
ieee$ = 104
__$ArrayPad$ = 120
sfdat$ = 144
aifcWriteHeader PROC

; 1208 : {

  00000	48 89 4c 24 08	 mov	 QWORD PTR [rsp+8], rcx
  00005	48 81 ec 88 00
	00 00		 sub	 rsp, 136		; 00000088H
  0000c	48 8b 05 00 00
	00 00		 mov	 rax, QWORD PTR __security_cookie
  00013	48 33 c4	 xor	 rax, rsp
  00016	48 89 44 24 78	 mov	 QWORD PTR __$ArrayPad$[rsp], rax

; 1209 : 	DWORD tag,size;		
; 1210 : 	PSF_CHPEAK *peaks;	
; 1211 : 	DWORD dwData,offset,blocksize,aifcver = AIFC_VERSION_1,ID_compression;

  0001b	c7 44 24 30 40
	51 80 a2	 mov	 DWORD PTR aifcver$[rsp], -1568648896 ; a2805140H

; 1212 : 	/*assume 32bit floats, but we may be asked to use aifc for integer formats too*/
; 1213 : 	char *str_compressed = (char *) aifc_floatstring;

  00023	48 8d 05 00 00
	00 00		 lea	 rax, OFFSET FLAT:aifc_floatstring
  0002a	48 89 44 24 58	 mov	 QWORD PTR str_compressed$[rsp], rax

; 1214 : 	int pstring_size = 10;

  0002f	c7 44 24 38 0a
	00 00 00	 mov	 DWORD PTR pstring_size$[rsp], 10

; 1215 : 	unsigned char ieee[10];
; 1216 : 	WORD wData;
; 1217 : 	fpos_t bytepos;
; 1218 : 
; 1219 : #ifdef _DEBUG
; 1220 : 	assert(sfdat);
; 1221 : 	assert(sfdat->file);
; 1222 : 	assert(sfdat->nFrames==0);
; 1223 : 	assert(!sfdat->isRead);
; 1224 : 	assert(sfdat->riff_format == PSF_AIFC);
; 1225 : 	assert(sfdat->fmt.Format.nChannels != 0);
; 1226 : #endif
; 1227 : 
; 1228 : 	if(sfdat->samptype==PSF_SAMP_IEEE_FLOAT)

  00037	48 8b 84 24 90
	00 00 00	 mov	 rax, QWORD PTR sfdat$[rsp]
  0003f	83 78 30 05	 cmp	 DWORD PTR [rax+48], 5
  00043	75 0a		 jne	 SHORT $LN2@aifcWriteH

; 1229 : 		ID_compression = TAG('f','l','3','2');

  00045	c7 44 24 2c 32
	33 6c 66	 mov	 DWORD PTR ID_compression$[rsp], 1718367026 ; 666c3332H
  0004d	eb 1c		 jmp	 SHORT $LN3@aifcWriteH
$LN2@aifcWriteH:

; 1230 : 	else {
; 1231 : 		ID_compression = TAG('N','O','N','E');

  0004f	c7 44 24 2c 45
	4e 4f 4e	 mov	 DWORD PTR ID_compression$[rsp], 1313820229 ; 4e4f4e45H

; 1232 : 		pstring_size = 16;

  00057	c7 44 24 38 10
	00 00 00	 mov	 DWORD PTR pstring_size$[rsp], 16

; 1233 : 		str_compressed = (char *) aifc_notcompressed;

  0005f	48 8d 05 00 00
	00 00		 lea	 rax, OFFSET FLAT:aifc_notcompressed
  00066	48 89 44 24 58	 mov	 QWORD PTR str_compressed$[rsp], rax
$LN3@aifcWriteH:

; 1234 : 	}
; 1235 : 	/*clear pPeaks array*/
; 1236 : 	if(sfdat->pPeaks)

  0006b	48 8b 84 24 90
	00 00 00	 mov	 rax, QWORD PTR sfdat$[rsp]
  00073	48 83 b8 80 00
	00 00 00	 cmp	 QWORD PTR [rax+128], 0
  0007b	74 29		 je	 SHORT $LN4@aifcWriteH

; 1237 : 		memset((char *)sfdat->pPeaks,0,sizeof(PSF_CHPEAK) * sfdat->fmt.Format.nChannels);

  0007d	48 8b 84 24 90
	00 00 00	 mov	 rax, QWORD PTR sfdat$[rsp]
  00085	0f b7 40 52	 movzx	 eax, WORD PTR [rax+82]
  00089	48 c1 e0 03	 shl	 rax, 3
  0008d	4c 8b c0	 mov	 r8, rax
  00090	33 d2		 xor	 edx, edx
  00092	48 8b 84 24 90
	00 00 00	 mov	 rax, QWORD PTR sfdat$[rsp]
  0009a	48 8b 88 80 00
	00 00		 mov	 rcx, QWORD PTR [rax+128]
  000a1	e8 00 00 00 00	 call	 memset
$LN4@aifcWriteH:

; 1238 : 
; 1239 : 	tag = TAG('F','O','R','M');

  000a6	c7 44 24 20 4d
	52 4f 46	 mov	 DWORD PTR tag$[rsp], 1179603533 ; 464f524dH

; 1240 : 	size = 0;

  000ae	c7 44 24 24 00
	00 00 00	 mov	 DWORD PTR size$[rsp], 0

; 1241 : 
; 1242 : 	if(sfdat->is_little_endian) {

  000b6	48 8b 84 24 90
	00 00 00	 mov	 rax, QWORD PTR sfdat$[rsp]
  000be	83 78 2c 00	 cmp	 DWORD PTR [rax+44], 0
  000c2	74 7a		 je	 SHORT $LN5@aifcWriteH

; 1243 : 		size = REVDWBYTES(size);	

  000c4	8b 44 24 24	 mov	 eax, DWORD PTR size$[rsp]
  000c8	25 ff 00 00 00	 and	 eax, 255		; 000000ffH
  000cd	c1 e0 18	 shl	 eax, 24
  000d0	8b 4c 24 24	 mov	 ecx, DWORD PTR size$[rsp]
  000d4	81 e1 00 ff 00
	00		 and	 ecx, 65280		; 0000ff00H
  000da	c1 e1 08	 shl	 ecx, 8
  000dd	0b c1		 or	 eax, ecx
  000df	8b 4c 24 24	 mov	 ecx, DWORD PTR size$[rsp]
  000e3	81 e1 00 00 ff
	00		 and	 ecx, 16711680		; 00ff0000H
  000e9	c1 e9 08	 shr	 ecx, 8
  000ec	0b c1		 or	 eax, ecx
  000ee	8b 4c 24 24	 mov	 ecx, DWORD PTR size$[rsp]
  000f2	c1 e9 18	 shr	 ecx, 24
  000f5	81 e1 ff 00 00
	00		 and	 ecx, 255		; 000000ffH
  000fb	0b c1		 or	 eax, ecx
  000fd	89 44 24 24	 mov	 DWORD PTR size$[rsp], eax

; 1244 : 		tag = REVDWBYTES(tag);

  00101	8b 44 24 20	 mov	 eax, DWORD PTR tag$[rsp]
  00105	25 ff 00 00 00	 and	 eax, 255		; 000000ffH
  0010a	c1 e0 18	 shl	 eax, 24
  0010d	8b 4c 24 20	 mov	 ecx, DWORD PTR tag$[rsp]
  00111	81 e1 00 ff 00
	00		 and	 ecx, 65280		; 0000ff00H
  00117	c1 e1 08	 shl	 ecx, 8
  0011a	0b c1		 or	 eax, ecx
  0011c	8b 4c 24 20	 mov	 ecx, DWORD PTR tag$[rsp]
  00120	81 e1 00 00 ff
	00		 and	 ecx, 16711680		; 00ff0000H
  00126	c1 e9 08	 shr	 ecx, 8
  00129	0b c1		 or	 eax, ecx
  0012b	8b 4c 24 20	 mov	 ecx, DWORD PTR tag$[rsp]
  0012f	c1 e9 18	 shr	 ecx, 24
  00132	81 e1 ff 00 00
	00		 and	 ecx, 255		; 000000ffH
  00138	0b c1		 or	 eax, ecx
  0013a	89 44 24 20	 mov	 DWORD PTR tag$[rsp], eax
$LN5@aifcWriteH:

; 1245 : 	}
; 1246 : 	if(wavDoWrite(sfdat,(char *)&tag,sizeof(DWORD))
; 1247 : 		|| wavDoWrite(sfdat,(char *)&size,sizeof(DWORD)))

  0013e	41 b8 04 00 00
	00		 mov	 r8d, 4
  00144	48 8d 54 24 20	 lea	 rdx, QWORD PTR tag$[rsp]
  00149	48 8b 8c 24 90
	00 00 00	 mov	 rcx, QWORD PTR sfdat$[rsp]
  00151	e8 00 00 00 00	 call	 wavDoWrite
  00156	85 c0		 test	 eax, eax
  00158	75 1c		 jne	 SHORT $LN7@aifcWriteH
  0015a	41 b8 04 00 00
	00		 mov	 r8d, 4
  00160	48 8d 54 24 24	 lea	 rdx, QWORD PTR size$[rsp]
  00165	48 8b 8c 24 90
	00 00 00	 mov	 rcx, QWORD PTR sfdat$[rsp]
  0016d	e8 00 00 00 00	 call	 wavDoWrite
  00172	85 c0		 test	 eax, eax
  00174	74 0a		 je	 SHORT $LN6@aifcWriteH
$LN7@aifcWriteH:

; 1248 : 		return PSF_E_CANT_WRITE;

  00176	b8 fd ff ff ff	 mov	 eax, -3
  0017b	e9 ac 07 00 00	 jmp	 $LN1@aifcWriteH
$LN6@aifcWriteH:

; 1249 : 	tag = TAG('A','I','F','C');

  00180	c7 44 24 20 43
	46 49 41	 mov	 DWORD PTR tag$[rsp], 1095321155 ; 41494643H

; 1250 : 	if(sfdat->is_little_endian)

  00188	48 8b 84 24 90
	00 00 00	 mov	 rax, QWORD PTR sfdat$[rsp]
  00190	83 78 2c 00	 cmp	 DWORD PTR [rax+44], 0
  00194	74 3d		 je	 SHORT $LN8@aifcWriteH

; 1251 : 		tag = REVDWBYTES(tag);

  00196	8b 44 24 20	 mov	 eax, DWORD PTR tag$[rsp]
  0019a	25 ff 00 00 00	 and	 eax, 255		; 000000ffH
  0019f	c1 e0 18	 shl	 eax, 24
  001a2	8b 4c 24 20	 mov	 ecx, DWORD PTR tag$[rsp]
  001a6	81 e1 00 ff 00
	00		 and	 ecx, 65280		; 0000ff00H
  001ac	c1 e1 08	 shl	 ecx, 8
  001af	0b c1		 or	 eax, ecx
  001b1	8b 4c 24 20	 mov	 ecx, DWORD PTR tag$[rsp]
  001b5	81 e1 00 00 ff
	00		 and	 ecx, 16711680		; 00ff0000H
  001bb	c1 e9 08	 shr	 ecx, 8
  001be	0b c1		 or	 eax, ecx
  001c0	8b 4c 24 20	 mov	 ecx, DWORD PTR tag$[rsp]
  001c4	c1 e9 18	 shr	 ecx, 24
  001c7	81 e1 ff 00 00
	00		 and	 ecx, 255		; 000000ffH
  001cd	0b c1		 or	 eax, ecx
  001cf	89 44 24 20	 mov	 DWORD PTR tag$[rsp], eax
$LN8@aifcWriteH:

; 1252 : 	if(wavDoWrite(sfdat,(char *)&tag,sizeof(DWORD)))

  001d3	41 b8 04 00 00
	00		 mov	 r8d, 4
  001d9	48 8d 54 24 20	 lea	 rdx, QWORD PTR tag$[rsp]
  001de	48 8b 8c 24 90
	00 00 00	 mov	 rcx, QWORD PTR sfdat$[rsp]
  001e6	e8 00 00 00 00	 call	 wavDoWrite
  001eb	85 c0		 test	 eax, eax
  001ed	74 0a		 je	 SHORT $LN9@aifcWriteH

; 1253 : 		return PSF_E_CANT_WRITE;

  001ef	b8 fd ff ff ff	 mov	 eax, -3
  001f4	e9 33 07 00 00	 jmp	 $LN1@aifcWriteH
$LN9@aifcWriteH:

; 1254 : 
; 1255 : 	tag = TAG('F','V','E','R');

  001f9	c7 44 24 20 52
	45 56 46	 mov	 DWORD PTR tag$[rsp], 1180058962 ; 46564552H

; 1256 : 	size = sizeof(DWORD);

  00201	c7 44 24 24 04
	00 00 00	 mov	 DWORD PTR size$[rsp], 4

; 1257 : 	if(sfdat->is_little_endian){

  00209	48 8b 84 24 90
	00 00 00	 mov	 rax, QWORD PTR sfdat$[rsp]
  00211	83 78 2c 00	 cmp	 DWORD PTR [rax+44], 0
  00215	0f 84 b7 00 00
	00		 je	 $LN10@aifcWriteH

; 1258 : 		size = REVDWBYTES(size);	

  0021b	8b 44 24 24	 mov	 eax, DWORD PTR size$[rsp]
  0021f	25 ff 00 00 00	 and	 eax, 255		; 000000ffH
  00224	c1 e0 18	 shl	 eax, 24
  00227	8b 4c 24 24	 mov	 ecx, DWORD PTR size$[rsp]
  0022b	81 e1 00 ff 00
	00		 and	 ecx, 65280		; 0000ff00H
  00231	c1 e1 08	 shl	 ecx, 8
  00234	0b c1		 or	 eax, ecx
  00236	8b 4c 24 24	 mov	 ecx, DWORD PTR size$[rsp]
  0023a	81 e1 00 00 ff
	00		 and	 ecx, 16711680		; 00ff0000H
  00240	c1 e9 08	 shr	 ecx, 8
  00243	0b c1		 or	 eax, ecx
  00245	8b 4c 24 24	 mov	 ecx, DWORD PTR size$[rsp]
  00249	c1 e9 18	 shr	 ecx, 24
  0024c	81 e1 ff 00 00
	00		 and	 ecx, 255		; 000000ffH
  00252	0b c1		 or	 eax, ecx
  00254	89 44 24 24	 mov	 DWORD PTR size$[rsp], eax

; 1259 : 		tag = REVDWBYTES(tag);

  00258	8b 44 24 20	 mov	 eax, DWORD PTR tag$[rsp]
  0025c	25 ff 00 00 00	 and	 eax, 255		; 000000ffH
  00261	c1 e0 18	 shl	 eax, 24
  00264	8b 4c 24 20	 mov	 ecx, DWORD PTR tag$[rsp]
  00268	81 e1 00 ff 00
	00		 and	 ecx, 65280		; 0000ff00H
  0026e	c1 e1 08	 shl	 ecx, 8
  00271	0b c1		 or	 eax, ecx
  00273	8b 4c 24 20	 mov	 ecx, DWORD PTR tag$[rsp]
  00277	81 e1 00 00 ff
	00		 and	 ecx, 16711680		; 00ff0000H
  0027d	c1 e9 08	 shr	 ecx, 8
  00280	0b c1		 or	 eax, ecx
  00282	8b 4c 24 20	 mov	 ecx, DWORD PTR tag$[rsp]
  00286	c1 e9 18	 shr	 ecx, 24
  00289	81 e1 ff 00 00
	00		 and	 ecx, 255		; 000000ffH
  0028f	0b c1		 or	 eax, ecx
  00291	89 44 24 20	 mov	 DWORD PTR tag$[rsp], eax

; 1260 : 		aifcver = REVDWBYTES(aifcver);

  00295	8b 44 24 30	 mov	 eax, DWORD PTR aifcver$[rsp]
  00299	25 ff 00 00 00	 and	 eax, 255		; 000000ffH
  0029e	c1 e0 18	 shl	 eax, 24
  002a1	8b 4c 24 30	 mov	 ecx, DWORD PTR aifcver$[rsp]
  002a5	81 e1 00 ff 00
	00		 and	 ecx, 65280		; 0000ff00H
  002ab	c1 e1 08	 shl	 ecx, 8
  002ae	0b c1		 or	 eax, ecx
  002b0	8b 4c 24 30	 mov	 ecx, DWORD PTR aifcver$[rsp]
  002b4	81 e1 00 00 ff
	00		 and	 ecx, 16711680		; 00ff0000H
  002ba	c1 e9 08	 shr	 ecx, 8
  002bd	0b c1		 or	 eax, ecx
  002bf	8b 4c 24 30	 mov	 ecx, DWORD PTR aifcver$[rsp]
  002c3	c1 e9 18	 shr	 ecx, 24
  002c6	81 e1 ff 00 00
	00		 and	 ecx, 255		; 000000ffH
  002cc	0b c1		 or	 eax, ecx
  002ce	89 44 24 30	 mov	 DWORD PTR aifcver$[rsp], eax
$LN10@aifcWriteH:

; 1261 : 	}
; 1262 : 	if(wavDoWrite(sfdat,(char *)&tag,sizeof(DWORD))
; 1263 : 		|| wavDoWrite(sfdat,(char *)&size,sizeof(DWORD))
; 1264 : 		|| wavDoWrite(sfdat,(char *)&aifcver,sizeof(DWORD)))

  002d2	41 b8 04 00 00
	00		 mov	 r8d, 4
  002d8	48 8d 54 24 20	 lea	 rdx, QWORD PTR tag$[rsp]
  002dd	48 8b 8c 24 90
	00 00 00	 mov	 rcx, QWORD PTR sfdat$[rsp]
  002e5	e8 00 00 00 00	 call	 wavDoWrite
  002ea	85 c0		 test	 eax, eax
  002ec	75 38		 jne	 SHORT $LN12@aifcWriteH
  002ee	41 b8 04 00 00
	00		 mov	 r8d, 4
  002f4	48 8d 54 24 24	 lea	 rdx, QWORD PTR size$[rsp]
  002f9	48 8b 8c 24 90
	00 00 00	 mov	 rcx, QWORD PTR sfdat$[rsp]
  00301	e8 00 00 00 00	 call	 wavDoWrite
  00306	85 c0		 test	 eax, eax
  00308	75 1c		 jne	 SHORT $LN12@aifcWriteH
  0030a	41 b8 04 00 00
	00		 mov	 r8d, 4
  00310	48 8d 54 24 30	 lea	 rdx, QWORD PTR aifcver$[rsp]
  00315	48 8b 8c 24 90
	00 00 00	 mov	 rcx, QWORD PTR sfdat$[rsp]
  0031d	e8 00 00 00 00	 call	 wavDoWrite
  00322	85 c0		 test	 eax, eax
  00324	74 0a		 je	 SHORT $LN11@aifcWriteH
$LN12@aifcWriteH:

; 1265 : 		return PSF_E_CANT_WRITE;

  00326	b8 fd ff ff ff	 mov	 eax, -3
  0032b	e9 fc 05 00 00	 jmp	 $LN1@aifcWriteH
$LN11@aifcWriteH:

; 1266 : 
; 1267 : 	tag = TAG('C','O','M','M');

  00330	c7 44 24 20 4d
	4d 4f 43	 mov	 DWORD PTR tag$[rsp], 1129270605 ; 434f4d4dH

; 1268 : 	size = 22 + pstring_size;

  00338	8b 44 24 38	 mov	 eax, DWORD PTR pstring_size$[rsp]
  0033c	83 c0 16	 add	 eax, 22
  0033f	89 44 24 24	 mov	 DWORD PTR size$[rsp], eax

; 1269 : 	if(sfdat->is_little_endian){

  00343	48 8b 84 24 90
	00 00 00	 mov	 rax, QWORD PTR sfdat$[rsp]
  0034b	83 78 2c 00	 cmp	 DWORD PTR [rax+44], 0
  0034f	74 7a		 je	 SHORT $LN13@aifcWriteH

; 1270 : 		size = REVDWBYTES(size);	

  00351	8b 44 24 24	 mov	 eax, DWORD PTR size$[rsp]
  00355	25 ff 00 00 00	 and	 eax, 255		; 000000ffH
  0035a	c1 e0 18	 shl	 eax, 24
  0035d	8b 4c 24 24	 mov	 ecx, DWORD PTR size$[rsp]
  00361	81 e1 00 ff 00
	00		 and	 ecx, 65280		; 0000ff00H
  00367	c1 e1 08	 shl	 ecx, 8
  0036a	0b c1		 or	 eax, ecx
  0036c	8b 4c 24 24	 mov	 ecx, DWORD PTR size$[rsp]
  00370	81 e1 00 00 ff
	00		 and	 ecx, 16711680		; 00ff0000H
  00376	c1 e9 08	 shr	 ecx, 8
  00379	0b c1		 or	 eax, ecx
  0037b	8b 4c 24 24	 mov	 ecx, DWORD PTR size$[rsp]
  0037f	c1 e9 18	 shr	 ecx, 24
  00382	81 e1 ff 00 00
	00		 and	 ecx, 255		; 000000ffH
  00388	0b c1		 or	 eax, ecx
  0038a	89 44 24 24	 mov	 DWORD PTR size$[rsp], eax

; 1271 : 		tag = REVDWBYTES(tag);

  0038e	8b 44 24 20	 mov	 eax, DWORD PTR tag$[rsp]
  00392	25 ff 00 00 00	 and	 eax, 255		; 000000ffH
  00397	c1 e0 18	 shl	 eax, 24
  0039a	8b 4c 24 20	 mov	 ecx, DWORD PTR tag$[rsp]
  0039e	81 e1 00 ff 00
	00		 and	 ecx, 65280		; 0000ff00H
  003a4	c1 e1 08	 shl	 ecx, 8
  003a7	0b c1		 or	 eax, ecx
  003a9	8b 4c 24 20	 mov	 ecx, DWORD PTR tag$[rsp]
  003ad	81 e1 00 00 ff
	00		 and	 ecx, 16711680		; 00ff0000H
  003b3	c1 e9 08	 shr	 ecx, 8
  003b6	0b c1		 or	 eax, ecx
  003b8	8b 4c 24 20	 mov	 ecx, DWORD PTR tag$[rsp]
  003bc	c1 e9 18	 shr	 ecx, 24
  003bf	81 e1 ff 00 00
	00		 and	 ecx, 255		; 000000ffH
  003c5	0b c1		 or	 eax, ecx
  003c7	89 44 24 20	 mov	 DWORD PTR tag$[rsp], eax
$LN13@aifcWriteH:

; 1272 : 	}
; 1273 : 	if(wavDoWrite(sfdat,(char *)&tag,sizeof(DWORD))
; 1274 : 		|| wavDoWrite(sfdat,(char *)&size,sizeof(DWORD)))

  003cb	41 b8 04 00 00
	00		 mov	 r8d, 4
  003d1	48 8d 54 24 20	 lea	 rdx, QWORD PTR tag$[rsp]
  003d6	48 8b 8c 24 90
	00 00 00	 mov	 rcx, QWORD PTR sfdat$[rsp]
  003de	e8 00 00 00 00	 call	 wavDoWrite
  003e3	85 c0		 test	 eax, eax
  003e5	75 1c		 jne	 SHORT $LN15@aifcWriteH
  003e7	41 b8 04 00 00
	00		 mov	 r8d, 4
  003ed	48 8d 54 24 24	 lea	 rdx, QWORD PTR size$[rsp]
  003f2	48 8b 8c 24 90
	00 00 00	 mov	 rcx, QWORD PTR sfdat$[rsp]
  003fa	e8 00 00 00 00	 call	 wavDoWrite
  003ff	85 c0		 test	 eax, eax
  00401	74 0a		 je	 SHORT $LN14@aifcWriteH
$LN15@aifcWriteH:

; 1275 : 		return PSF_E_CANT_WRITE;

  00403	b8 fd ff ff ff	 mov	 eax, -3
  00408	e9 1f 05 00 00	 jmp	 $LN1@aifcWriteH
$LN14@aifcWriteH:

; 1276 : 	if(fgetpos(sfdat->file,&bytepos))

  0040d	48 8d 54 24 48	 lea	 rdx, QWORD PTR bytepos$[rsp]
  00412	48 8b 84 24 90
	00 00 00	 mov	 rax, QWORD PTR sfdat$[rsp]
  0041a	48 8b 08	 mov	 rcx, QWORD PTR [rax]
  0041d	e8 00 00 00 00	 call	 fgetpos
  00422	85 c0		 test	 eax, eax
  00424	74 0a		 je	 SHORT $LN16@aifcWriteH

; 1277 : 	    return PSF_E_CANT_SEEK;

  00426	b8 f5 ff ff ff	 mov	 eax, -11
  0042b	e9 fc 04 00 00	 jmp	 $LN1@aifcWriteH
$LN16@aifcWriteH:

; 1278 : 	sfdat->fmtoffset = bytepos;

  00430	48 8b 84 24 90
	00 00 00	 mov	 rax, QWORD PTR sfdat$[rsp]
  00438	48 8b 4c 24 48	 mov	 rcx, QWORD PTR bytepos$[rsp]
  0043d	48 89 48 40	 mov	 QWORD PTR [rax+64], rcx

; 1279 : 
; 1280 : 	wData = sfdat->fmt.Format.nChannels;

  00441	48 8b 84 24 90
	00 00 00	 mov	 rax, QWORD PTR sfdat$[rsp]
  00449	0f b7 40 52	 movzx	 eax, WORD PTR [rax+82]
  0044d	66 89 44 24 28	 mov	 WORD PTR wData$[rsp], ax

; 1281 : 	if(sfdat->is_little_endian)

  00452	48 8b 84 24 90
	00 00 00	 mov	 rax, QWORD PTR sfdat$[rsp]
  0045a	83 78 2c 00	 cmp	 DWORD PTR [rax+44], 0
  0045e	74 22		 je	 SHORT $LN17@aifcWriteH

; 1282 : 		wData = (WORD) REVWBYTES(wData);

  00460	0f b7 44 24 28	 movzx	 eax, WORD PTR wData$[rsp]
  00465	25 ff 00 00 00	 and	 eax, 255		; 000000ffH
  0046a	c1 e0 08	 shl	 eax, 8
  0046d	0f b7 4c 24 28	 movzx	 ecx, WORD PTR wData$[rsp]
  00472	c1 f9 08	 sar	 ecx, 8
  00475	81 e1 ff 00 00
	00		 and	 ecx, 255		; 000000ffH
  0047b	0b c1		 or	 eax, ecx
  0047d	66 89 44 24 28	 mov	 WORD PTR wData$[rsp], ax
$LN17@aifcWriteH:

; 1283 : 	if(wavDoWrite(sfdat,(char *)&wData,sizeof(WORD)))

  00482	41 b8 02 00 00
	00		 mov	 r8d, 2
  00488	48 8d 54 24 28	 lea	 rdx, QWORD PTR wData$[rsp]
  0048d	48 8b 8c 24 90
	00 00 00	 mov	 rcx, QWORD PTR sfdat$[rsp]
  00495	e8 00 00 00 00	 call	 wavDoWrite
  0049a	85 c0		 test	 eax, eax
  0049c	74 0a		 je	 SHORT $LN18@aifcWriteH

; 1284 : 		return PSF_E_CANT_WRITE;

  0049e	b8 fd ff ff ff	 mov	 eax, -3
  004a3	e9 84 04 00 00	 jmp	 $LN1@aifcWriteH
$LN18@aifcWriteH:

; 1285 : 
; 1286 : 	dwData = 0;			/* nFrames */

  004a8	c7 44 24 50 00
	00 00 00	 mov	 DWORD PTR dwData$[rsp], 0

; 1287 : 	if(wavDoWrite(sfdat,(char *)&dwData,sizeof(DWORD)))

  004b0	41 b8 04 00 00
	00		 mov	 r8d, 4
  004b6	48 8d 54 24 50	 lea	 rdx, QWORD PTR dwData$[rsp]
  004bb	48 8b 8c 24 90
	00 00 00	 mov	 rcx, QWORD PTR sfdat$[rsp]
  004c3	e8 00 00 00 00	 call	 wavDoWrite
  004c8	85 c0		 test	 eax, eax
  004ca	74 0a		 je	 SHORT $LN19@aifcWriteH

; 1288 : 		return PSF_E_CANT_WRITE;

  004cc	b8 fd ff ff ff	 mov	 eax, -3
  004d1	e9 56 04 00 00	 jmp	 $LN1@aifcWriteH
$LN19@aifcWriteH:

; 1289 : 
; 1290 : 	wData = sfdat->fmt.Format.wBitsPerSample;

  004d6	48 8b 84 24 90
	00 00 00	 mov	 rax, QWORD PTR sfdat$[rsp]
  004de	0f b7 40 5e	 movzx	 eax, WORD PTR [rax+94]
  004e2	66 89 44 24 28	 mov	 WORD PTR wData$[rsp], ax

; 1291 : 	if(sfdat->is_little_endian)

  004e7	48 8b 84 24 90
	00 00 00	 mov	 rax, QWORD PTR sfdat$[rsp]
  004ef	83 78 2c 00	 cmp	 DWORD PTR [rax+44], 0
  004f3	74 22		 je	 SHORT $LN20@aifcWriteH

; 1292 : 		wData = (WORD) REVWBYTES(wData);

  004f5	0f b7 44 24 28	 movzx	 eax, WORD PTR wData$[rsp]
  004fa	25 ff 00 00 00	 and	 eax, 255		; 000000ffH
  004ff	c1 e0 08	 shl	 eax, 8
  00502	0f b7 4c 24 28	 movzx	 ecx, WORD PTR wData$[rsp]
  00507	c1 f9 08	 sar	 ecx, 8
  0050a	81 e1 ff 00 00
	00		 and	 ecx, 255		; 000000ffH
  00510	0b c1		 or	 eax, ecx
  00512	66 89 44 24 28	 mov	 WORD PTR wData$[rsp], ax
$LN20@aifcWriteH:

; 1293 : 	if(wavDoWrite(sfdat,(char *)&wData,sizeof(WORD)))

  00517	41 b8 02 00 00
	00		 mov	 r8d, 2
  0051d	48 8d 54 24 28	 lea	 rdx, QWORD PTR wData$[rsp]
  00522	48 8b 8c 24 90
	00 00 00	 mov	 rcx, QWORD PTR sfdat$[rsp]
  0052a	e8 00 00 00 00	 call	 wavDoWrite
  0052f	85 c0		 test	 eax, eax
  00531	74 0a		 je	 SHORT $LN21@aifcWriteH

; 1294 : 		return PSF_E_CANT_WRITE;

  00533	b8 fd ff ff ff	 mov	 eax, -3
  00538	e9 ef 03 00 00	 jmp	 $LN1@aifcWriteH
$LN21@aifcWriteH:

; 1295 : 	double_to_ieee_80((double)sfdat->fmt.Format.nSamplesPerSec,ieee);

  0053d	48 8b 84 24 90
	00 00 00	 mov	 rax, QWORD PTR sfdat$[rsp]
  00545	8b 40 54	 mov	 eax, DWORD PTR [rax+84]
  00548	f2 48 0f 2a c0	 cvtsi2sd xmm0, rax
  0054d	48 8d 54 24 68	 lea	 rdx, QWORD PTR ieee$[rsp]
  00552	e8 00 00 00 00	 call	 double_to_ieee_80

; 1296 : 	
; 1297 : 	if(wavDoWrite(sfdat,ieee,10))

  00557	41 b8 0a 00 00
	00		 mov	 r8d, 10
  0055d	48 8d 54 24 68	 lea	 rdx, QWORD PTR ieee$[rsp]
  00562	48 8b 8c 24 90
	00 00 00	 mov	 rcx, QWORD PTR sfdat$[rsp]
  0056a	e8 00 00 00 00	 call	 wavDoWrite
  0056f	85 c0		 test	 eax, eax
  00571	74 0a		 je	 SHORT $LN22@aifcWriteH

; 1298 : 		return PSF_E_CANT_WRITE;

  00573	b8 fd ff ff ff	 mov	 eax, -3
  00578	e9 af 03 00 00	 jmp	 $LN1@aifcWriteH
$LN22@aifcWriteH:

; 1299 : 	/*AIFC bits */
; 1300 : 	if(sfdat->is_little_endian)

  0057d	48 8b 84 24 90
	00 00 00	 mov	 rax, QWORD PTR sfdat$[rsp]
  00585	83 78 2c 00	 cmp	 DWORD PTR [rax+44], 0
  00589	74 3d		 je	 SHORT $LN23@aifcWriteH

; 1301 : 		ID_compression = REVDWBYTES(ID_compression);

  0058b	8b 44 24 2c	 mov	 eax, DWORD PTR ID_compression$[rsp]
  0058f	25 ff 00 00 00	 and	 eax, 255		; 000000ffH
  00594	c1 e0 18	 shl	 eax, 24
  00597	8b 4c 24 2c	 mov	 ecx, DWORD PTR ID_compression$[rsp]
  0059b	81 e1 00 ff 00
	00		 and	 ecx, 65280		; 0000ff00H
  005a1	c1 e1 08	 shl	 ecx, 8
  005a4	0b c1		 or	 eax, ecx
  005a6	8b 4c 24 2c	 mov	 ecx, DWORD PTR ID_compression$[rsp]
  005aa	81 e1 00 00 ff
	00		 and	 ecx, 16711680		; 00ff0000H
  005b0	c1 e9 08	 shr	 ecx, 8
  005b3	0b c1		 or	 eax, ecx
  005b5	8b 4c 24 2c	 mov	 ecx, DWORD PTR ID_compression$[rsp]
  005b9	c1 e9 18	 shr	 ecx, 24
  005bc	81 e1 ff 00 00
	00		 and	 ecx, 255		; 000000ffH
  005c2	0b c1		 or	 eax, ecx
  005c4	89 44 24 2c	 mov	 DWORD PTR ID_compression$[rsp], eax
$LN23@aifcWriteH:

; 1302 : 	if(wavDoWrite(sfdat,(char *)&ID_compression,sizeof(DWORD)))

  005c8	41 b8 04 00 00
	00		 mov	 r8d, 4
  005ce	48 8d 54 24 2c	 lea	 rdx, QWORD PTR ID_compression$[rsp]
  005d3	48 8b 8c 24 90
	00 00 00	 mov	 rcx, QWORD PTR sfdat$[rsp]
  005db	e8 00 00 00 00	 call	 wavDoWrite
  005e0	85 c0		 test	 eax, eax
  005e2	74 0a		 je	 SHORT $LN24@aifcWriteH

; 1303 : 		return PSF_E_CANT_WRITE;

  005e4	b8 fd ff ff ff	 mov	 eax, -3
  005e9	e9 3e 03 00 00	 jmp	 $LN1@aifcWriteH
$LN24@aifcWriteH:

; 1304 : 	if(wavDoWrite(sfdat,str_compressed,pstring_size))

  005ee	44 8b 44 24 38	 mov	 r8d, DWORD PTR pstring_size$[rsp]
  005f3	48 8b 54 24 58	 mov	 rdx, QWORD PTR str_compressed$[rsp]
  005f8	48 8b 8c 24 90
	00 00 00	 mov	 rcx, QWORD PTR sfdat$[rsp]
  00600	e8 00 00 00 00	 call	 wavDoWrite
  00605	85 c0		 test	 eax, eax
  00607	74 0a		 je	 SHORT $LN25@aifcWriteH

; 1305 : 		return PSF_E_CANT_WRITE;

  00609	b8 fd ff ff ff	 mov	 eax, -3
  0060e	e9 19 03 00 00	 jmp	 $LN1@aifcWriteH
$LN25@aifcWriteH:

; 1306 : 
; 1307 : 	if(sfdat->pPeaks){

  00613	48 8b 84 24 90
	00 00 00	 mov	 rax, QWORD PTR sfdat$[rsp]
  0061b	48 83 b8 80 00
	00 00 00	 cmp	 QWORD PTR [rax+128], 0
  00623	0f 84 ee 01 00
	00		 je	 $LN26@aifcWriteH

; 1308 : 		DWORD version = 1, now = 0;

  00629	c7 44 24 34 01
	00 00 00	 mov	 DWORD PTR version$1[rsp], 1
  00631	c7 44 24 54 00
	00 00 00	 mov	 DWORD PTR now$2[rsp], 0

; 1309 : 
; 1310 : 		peaks = sfdat->pPeaks;		

  00639	48 8b 84 24 90
	00 00 00	 mov	 rax, QWORD PTR sfdat$[rsp]
  00641	48 8b 80 80 00
	00 00		 mov	 rax, QWORD PTR [rax+128]
  00648	48 89 44 24 60	 mov	 QWORD PTR peaks$[rsp], rax

; 1311 : 		tag = TAG('P','E','A','K');		

  0064d	c7 44 24 20 4b
	41 45 50	 mov	 DWORD PTR tag$[rsp], 1346715979 ; 5045414bH

; 1312 : 		size = 2 * sizeof(DWORD) + sizeof(PSF_CHPEAK) * sfdat->fmt.Format.nChannels;

  00655	48 8b 84 24 90
	00 00 00	 mov	 rax, QWORD PTR sfdat$[rsp]
  0065d	0f b7 40 52	 movzx	 eax, WORD PTR [rax+82]
  00661	48 8d 04 c5 08
	00 00 00	 lea	 rax, QWORD PTR [rax*8+8]
  00669	89 44 24 24	 mov	 DWORD PTR size$[rsp], eax

; 1313 : 		if(sfdat->is_little_endian){

  0066d	48 8b 84 24 90
	00 00 00	 mov	 rax, QWORD PTR sfdat$[rsp]
  00675	83 78 2c 00	 cmp	 DWORD PTR [rax+44], 0
  00679	0f 84 b7 00 00
	00		 je	 $LN27@aifcWriteH

; 1314 : 			size = REVDWBYTES(size);

  0067f	8b 44 24 24	 mov	 eax, DWORD PTR size$[rsp]
  00683	25 ff 00 00 00	 and	 eax, 255		; 000000ffH
  00688	c1 e0 18	 shl	 eax, 24
  0068b	8b 4c 24 24	 mov	 ecx, DWORD PTR size$[rsp]
  0068f	81 e1 00 ff 00
	00		 and	 ecx, 65280		; 0000ff00H
  00695	c1 e1 08	 shl	 ecx, 8
  00698	0b c1		 or	 eax, ecx
  0069a	8b 4c 24 24	 mov	 ecx, DWORD PTR size$[rsp]
  0069e	81 e1 00 00 ff
	00		 and	 ecx, 16711680		; 00ff0000H
  006a4	c1 e9 08	 shr	 ecx, 8
  006a7	0b c1		 or	 eax, ecx
  006a9	8b 4c 24 24	 mov	 ecx, DWORD PTR size$[rsp]
  006ad	c1 e9 18	 shr	 ecx, 24
  006b0	81 e1 ff 00 00
	00		 and	 ecx, 255		; 000000ffH
  006b6	0b c1		 or	 eax, ecx
  006b8	89 44 24 24	 mov	 DWORD PTR size$[rsp], eax

; 1315 : 			version  = REVDWBYTES(version);

  006bc	8b 44 24 34	 mov	 eax, DWORD PTR version$1[rsp]
  006c0	25 ff 00 00 00	 and	 eax, 255		; 000000ffH
  006c5	c1 e0 18	 shl	 eax, 24
  006c8	8b 4c 24 34	 mov	 ecx, DWORD PTR version$1[rsp]
  006cc	81 e1 00 ff 00
	00		 and	 ecx, 65280		; 0000ff00H
  006d2	c1 e1 08	 shl	 ecx, 8
  006d5	0b c1		 or	 eax, ecx
  006d7	8b 4c 24 34	 mov	 ecx, DWORD PTR version$1[rsp]
  006db	81 e1 00 00 ff
	00		 and	 ecx, 16711680		; 00ff0000H
  006e1	c1 e9 08	 shr	 ecx, 8
  006e4	0b c1		 or	 eax, ecx
  006e6	8b 4c 24 34	 mov	 ecx, DWORD PTR version$1[rsp]
  006ea	c1 e9 18	 shr	 ecx, 24
  006ed	81 e1 ff 00 00
	00		 and	 ecx, 255		; 000000ffH
  006f3	0b c1		 or	 eax, ecx
  006f5	89 44 24 34	 mov	 DWORD PTR version$1[rsp], eax

; 1316 : 			tag = REVDWBYTES(tag);

  006f9	8b 44 24 20	 mov	 eax, DWORD PTR tag$[rsp]
  006fd	25 ff 00 00 00	 and	 eax, 255		; 000000ffH
  00702	c1 e0 18	 shl	 eax, 24
  00705	8b 4c 24 20	 mov	 ecx, DWORD PTR tag$[rsp]
  00709	81 e1 00 ff 00
	00		 and	 ecx, 65280		; 0000ff00H
  0070f	c1 e1 08	 shl	 ecx, 8
  00712	0b c1		 or	 eax, ecx
  00714	8b 4c 24 20	 mov	 ecx, DWORD PTR tag$[rsp]
  00718	81 e1 00 00 ff
	00		 and	 ecx, 16711680		; 00ff0000H
  0071e	c1 e9 08	 shr	 ecx, 8
  00721	0b c1		 or	 eax, ecx
  00723	8b 4c 24 20	 mov	 ecx, DWORD PTR tag$[rsp]
  00727	c1 e9 18	 shr	 ecx, 24
  0072a	81 e1 ff 00 00
	00		 and	 ecx, 255		; 000000ffH
  00730	0b c1		 or	 eax, ecx
  00732	89 44 24 20	 mov	 DWORD PTR tag$[rsp], eax
$LN27@aifcWriteH:

; 1317 : 		}
; 1318 : 		if(wavDoWrite(sfdat,(char *)&tag,sizeof(DWORD))
; 1319 : 			|| wavDoWrite(sfdat,(char *)&size,sizeof(DWORD))
; 1320 : 			|| wavDoWrite(sfdat,(char *)&version,sizeof(DWORD)))

  00736	41 b8 04 00 00
	00		 mov	 r8d, 4
  0073c	48 8d 54 24 20	 lea	 rdx, QWORD PTR tag$[rsp]
  00741	48 8b 8c 24 90
	00 00 00	 mov	 rcx, QWORD PTR sfdat$[rsp]
  00749	e8 00 00 00 00	 call	 wavDoWrite
  0074e	85 c0		 test	 eax, eax
  00750	75 38		 jne	 SHORT $LN29@aifcWriteH
  00752	41 b8 04 00 00
	00		 mov	 r8d, 4
  00758	48 8d 54 24 24	 lea	 rdx, QWORD PTR size$[rsp]
  0075d	48 8b 8c 24 90
	00 00 00	 mov	 rcx, QWORD PTR sfdat$[rsp]
  00765	e8 00 00 00 00	 call	 wavDoWrite
  0076a	85 c0		 test	 eax, eax
  0076c	75 1c		 jne	 SHORT $LN29@aifcWriteH
  0076e	41 b8 04 00 00
	00		 mov	 r8d, 4
  00774	48 8d 54 24 34	 lea	 rdx, QWORD PTR version$1[rsp]
  00779	48 8b 8c 24 90
	00 00 00	 mov	 rcx, QWORD PTR sfdat$[rsp]
  00781	e8 00 00 00 00	 call	 wavDoWrite
  00786	85 c0		 test	 eax, eax
  00788	74 0a		 je	 SHORT $LN28@aifcWriteH
$LN29@aifcWriteH:

; 1321 : 			return PSF_E_CANT_WRITE;

  0078a	b8 fd ff ff ff	 mov	 eax, -3
  0078f	e9 98 01 00 00	 jmp	 $LN1@aifcWriteH
$LN28@aifcWriteH:

; 1322 : 		if(fgetpos(sfdat->file,&bytepos))

  00794	48 8d 54 24 48	 lea	 rdx, QWORD PTR bytepos$[rsp]
  00799	48 8b 84 24 90
	00 00 00	 mov	 rax, QWORD PTR sfdat$[rsp]
  007a1	48 8b 08	 mov	 rcx, QWORD PTR [rax]
  007a4	e8 00 00 00 00	 call	 fgetpos
  007a9	85 c0		 test	 eax, eax
  007ab	74 0a		 je	 SHORT $LN30@aifcWriteH

; 1323 : 		    return PSF_E_CANT_SEEK;

  007ad	b8 f5 ff ff ff	 mov	 eax, -11
  007b2	e9 75 01 00 00	 jmp	 $LN1@aifcWriteH
$LN30@aifcWriteH:

; 1324 : 		sfdat->peakoffset = bytepos;  /*we need to update time*/

  007b7	48 8b 84 24 90
	00 00 00	 mov	 rax, QWORD PTR sfdat$[rsp]
  007bf	48 8b 4c 24 48	 mov	 rcx, QWORD PTR bytepos$[rsp]
  007c4	48 89 48 48	 mov	 QWORD PTR [rax+72], rcx

; 1325 : 
; 1326 : 		if(wavDoWrite(sfdat,(char *) &now,sizeof(DWORD))
; 1327 : 			|| wavDoWrite(sfdat,(char *) peaks, sizeof(PSF_CHPEAK) * sfdat->fmt.Format.nChannels))

  007c8	41 b8 04 00 00
	00		 mov	 r8d, 4
  007ce	48 8d 54 24 54	 lea	 rdx, QWORD PTR now$2[rsp]
  007d3	48 8b 8c 24 90
	00 00 00	 mov	 rcx, QWORD PTR sfdat$[rsp]
  007db	e8 00 00 00 00	 call	 wavDoWrite
  007e0	85 c0		 test	 eax, eax
  007e2	75 29		 jne	 SHORT $LN32@aifcWriteH
  007e4	48 8b 84 24 90
	00 00 00	 mov	 rax, QWORD PTR sfdat$[rsp]
  007ec	0f b7 40 52	 movzx	 eax, WORD PTR [rax+82]
  007f0	48 c1 e0 03	 shl	 rax, 3
  007f4	44 8b c0	 mov	 r8d, eax
  007f7	48 8b 54 24 60	 mov	 rdx, QWORD PTR peaks$[rsp]
  007fc	48 8b 8c 24 90
	00 00 00	 mov	 rcx, QWORD PTR sfdat$[rsp]
  00804	e8 00 00 00 00	 call	 wavDoWrite
  00809	85 c0		 test	 eax, eax
  0080b	74 0a		 je	 SHORT $LN31@aifcWriteH
$LN32@aifcWriteH:

; 1328 : 			return PSF_E_CANT_WRITE;

  0080d	b8 fd ff ff ff	 mov	 eax, -3
  00812	e9 15 01 00 00	 jmp	 $LN1@aifcWriteH
$LN31@aifcWriteH:
$LN26@aifcWriteH:

; 1329 : 	}
; 1330 : 
; 1331 : 	tag = TAG('S','S','N','D');

  00817	c7 44 24 20 44
	4e 53 53	 mov	 DWORD PTR tag$[rsp], 1397968452 ; 53534e44H

; 1332 : 	size = offset = blocksize = 0;

  0081f	c7 44 24 40 00
	00 00 00	 mov	 DWORD PTR blocksize$[rsp], 0
  00827	8b 44 24 40	 mov	 eax, DWORD PTR blocksize$[rsp]
  0082b	89 44 24 3c	 mov	 DWORD PTR offset$[rsp], eax
  0082f	8b 44 24 3c	 mov	 eax, DWORD PTR offset$[rsp]
  00833	89 44 24 24	 mov	 DWORD PTR size$[rsp], eax

; 1333 : 	if(sfdat->is_little_endian)

  00837	48 8b 84 24 90
	00 00 00	 mov	 rax, QWORD PTR sfdat$[rsp]
  0083f	83 78 2c 00	 cmp	 DWORD PTR [rax+44], 0
  00843	74 3d		 je	 SHORT $LN33@aifcWriteH

; 1334 : 	    tag = REVDWBYTES(tag);

  00845	8b 44 24 20	 mov	 eax, DWORD PTR tag$[rsp]
  00849	25 ff 00 00 00	 and	 eax, 255		; 000000ffH
  0084e	c1 e0 18	 shl	 eax, 24
  00851	8b 4c 24 20	 mov	 ecx, DWORD PTR tag$[rsp]
  00855	81 e1 00 ff 00
	00		 and	 ecx, 65280		; 0000ff00H
  0085b	c1 e1 08	 shl	 ecx, 8
  0085e	0b c1		 or	 eax, ecx
  00860	8b 4c 24 20	 mov	 ecx, DWORD PTR tag$[rsp]
  00864	81 e1 00 00 ff
	00		 and	 ecx, 16711680		; 00ff0000H
  0086a	c1 e9 08	 shr	 ecx, 8
  0086d	0b c1		 or	 eax, ecx
  0086f	8b 4c 24 20	 mov	 ecx, DWORD PTR tag$[rsp]
  00873	c1 e9 18	 shr	 ecx, 24
  00876	81 e1 ff 00 00
	00		 and	 ecx, 255		; 000000ffH
  0087c	0b c1		 or	 eax, ecx
  0087e	89 44 24 20	 mov	 DWORD PTR tag$[rsp], eax
$LN33@aifcWriteH:

; 1335 : 	if(wavDoWrite(sfdat,(char *)&tag,sizeof(DWORD))
; 1336 : 			|| wavDoWrite(sfdat,(char *)&size,sizeof(DWORD))
; 1337 : 			|| wavDoWrite(sfdat,(char *)&offset,sizeof(DWORD))
; 1338 : 			|| wavDoWrite(sfdat,(char *)&blocksize,sizeof(DWORD)))

  00882	41 b8 04 00 00
	00		 mov	 r8d, 4
  00888	48 8d 54 24 20	 lea	 rdx, QWORD PTR tag$[rsp]
  0088d	48 8b 8c 24 90
	00 00 00	 mov	 rcx, QWORD PTR sfdat$[rsp]
  00895	e8 00 00 00 00	 call	 wavDoWrite
  0089a	85 c0		 test	 eax, eax
  0089c	75 54		 jne	 SHORT $LN35@aifcWriteH
  0089e	41 b8 04 00 00
	00		 mov	 r8d, 4
  008a4	48 8d 54 24 24	 lea	 rdx, QWORD PTR size$[rsp]
  008a9	48 8b 8c 24 90
	00 00 00	 mov	 rcx, QWORD PTR sfdat$[rsp]
  008b1	e8 00 00 00 00	 call	 wavDoWrite
  008b6	85 c0		 test	 eax, eax
  008b8	75 38		 jne	 SHORT $LN35@aifcWriteH
  008ba	41 b8 04 00 00
	00		 mov	 r8d, 4
  008c0	48 8d 54 24 3c	 lea	 rdx, QWORD PTR offset$[rsp]
  008c5	48 8b 8c 24 90
	00 00 00	 mov	 rcx, QWORD PTR sfdat$[rsp]
  008cd	e8 00 00 00 00	 call	 wavDoWrite
  008d2	85 c0		 test	 eax, eax
  008d4	75 1c		 jne	 SHORT $LN35@aifcWriteH
  008d6	41 b8 04 00 00
	00		 mov	 r8d, 4
  008dc	48 8d 54 24 40	 lea	 rdx, QWORD PTR blocksize$[rsp]
  008e1	48 8b 8c 24 90
	00 00 00	 mov	 rcx, QWORD PTR sfdat$[rsp]
  008e9	e8 00 00 00 00	 call	 wavDoWrite
  008ee	85 c0		 test	 eax, eax
  008f0	74 07		 je	 SHORT $LN34@aifcWriteH
$LN35@aifcWriteH:

; 1339 : 			return PSF_E_CANT_WRITE;

  008f2	b8 fd ff ff ff	 mov	 eax, -3
  008f7	eb 33		 jmp	 SHORT $LN1@aifcWriteH
$LN34@aifcWriteH:

; 1340 : 	if(fgetpos(sfdat->file,&bytepos))

  008f9	48 8d 54 24 48	 lea	 rdx, QWORD PTR bytepos$[rsp]
  008fe	48 8b 84 24 90
	00 00 00	 mov	 rax, QWORD PTR sfdat$[rsp]
  00906	48 8b 08	 mov	 rcx, QWORD PTR [rax]
  00909	e8 00 00 00 00	 call	 fgetpos
  0090e	85 c0		 test	 eax, eax
  00910	74 07		 je	 SHORT $LN36@aifcWriteH

; 1341 : 	    return PSF_E_CANT_SEEK;

  00912	b8 f5 ff ff ff	 mov	 eax, -11
  00917	eb 13		 jmp	 SHORT $LN1@aifcWriteH
$LN36@aifcWriteH:

; 1342 : 	sfdat->dataoffset = bytepos;

  00919	48 8b 84 24 90
	00 00 00	 mov	 rax, QWORD PTR sfdat$[rsp]
  00921	48 8b 4c 24 48	 mov	 rcx, QWORD PTR bytepos$[rsp]
  00926	48 89 48 38	 mov	 QWORD PTR [rax+56], rcx

; 1343 : 	return PSF_E_NOERROR;

  0092a	33 c0		 xor	 eax, eax
$LN1@aifcWriteH:

; 1344 : }

  0092c	48 8b 4c 24 78	 mov	 rcx, QWORD PTR __$ArrayPad$[rsp]
  00931	48 33 cc	 xor	 rcx, rsp
  00934	e8 00 00 00 00	 call	 __security_check_cookie
  00939	48 81 c4 88 00
	00 00		 add	 rsp, 136		; 00000088H
  00940	c3		 ret	 0
aifcWriteHeader ENDP
_TEXT	ENDS
; Function compile flags: /Odtp
; File k:\audio\editing\current\programming\the_audio_programming_book\test_code\misc\psfmaster\portsf\portsf.c
_TEXT	SEGMENT
tag$ = 32
size$ = 36
wData$ = 40
version$1 = 44
offset$ = 48
blocksize$ = 52
bytepos$ = 56
dwData$ = 64
now$2 = 68
peaks$ = 72
ieee$ = 80
__$ArrayPad$ = 96
sfdat$ = 128
aiffWriteHeader PROC

; 1098 : {

  00000	48 89 4c 24 08	 mov	 QWORD PTR [rsp+8], rcx
  00005	48 83 ec 78	 sub	 rsp, 120		; 00000078H
  00009	48 8b 05 00 00
	00 00		 mov	 rax, QWORD PTR __security_cookie
  00010	48 33 c4	 xor	 rax, rsp
  00013	48 89 44 24 60	 mov	 QWORD PTR __$ArrayPad$[rsp], rax

; 1099 : 	DWORD tag,size;		
; 1100 : 	PSF_CHPEAK *peaks;	
; 1101 : 	DWORD dwData,offset,blocksize;
; 1102 : 	unsigned char ieee[10];
; 1103 : 	WORD wData;
; 1104 : 	fpos_t bytepos;
; 1105 : #ifdef _DEBUG
; 1106 : 	assert(sfdat);
; 1107 : 	assert(sfdat->file);
; 1108 : 	assert(sfdat->chformat > STDWAVE);
; 1109 : 	assert(sfdat->nFrames==0);
; 1110 : 	assert(!sfdat->isRead);
; 1111 : 	assert(sfdat->riff_format == PSF_AIFF);
; 1112 : 	assert(sfdat->fmt.Format.nChannels != 0);
; 1113 : #endif
; 1114 : 
; 1115 : 	/*clear pPeaks array*/
; 1116 : 	if(sfdat->pPeaks)

  00018	48 8b 84 24 80
	00 00 00	 mov	 rax, QWORD PTR sfdat$[rsp]
  00020	48 83 b8 80 00
	00 00 00	 cmp	 QWORD PTR [rax+128], 0
  00028	74 29		 je	 SHORT $LN2@aiffWriteH

; 1117 : 		memset((char *)sfdat->pPeaks,0,sizeof(PSF_CHPEAK) * sfdat->fmt.Format.nChannels);

  0002a	48 8b 84 24 80
	00 00 00	 mov	 rax, QWORD PTR sfdat$[rsp]
  00032	0f b7 40 52	 movzx	 eax, WORD PTR [rax+82]
  00036	48 c1 e0 03	 shl	 rax, 3
  0003a	4c 8b c0	 mov	 r8, rax
  0003d	33 d2		 xor	 edx, edx
  0003f	48 8b 84 24 80
	00 00 00	 mov	 rax, QWORD PTR sfdat$[rsp]
  00047	48 8b 88 80 00
	00 00		 mov	 rcx, QWORD PTR [rax+128]
  0004e	e8 00 00 00 00	 call	 memset
$LN2@aiffWriteH:

; 1118 : 
; 1119 : 	tag = TAG('F','O','R','M');

  00053	c7 44 24 20 4d
	52 4f 46	 mov	 DWORD PTR tag$[rsp], 1179603533 ; 464f524dH

; 1120 : 	size = 0;

  0005b	c7 44 24 24 00
	00 00 00	 mov	 DWORD PTR size$[rsp], 0

; 1121 : 
; 1122 : 	if(sfdat->is_little_endian) {

  00063	48 8b 84 24 80
	00 00 00	 mov	 rax, QWORD PTR sfdat$[rsp]
  0006b	83 78 2c 00	 cmp	 DWORD PTR [rax+44], 0
  0006f	74 7a		 je	 SHORT $LN3@aiffWriteH

; 1123 : 		size = REVDWBYTES(size);	

  00071	8b 44 24 24	 mov	 eax, DWORD PTR size$[rsp]
  00075	25 ff 00 00 00	 and	 eax, 255		; 000000ffH
  0007a	c1 e0 18	 shl	 eax, 24
  0007d	8b 4c 24 24	 mov	 ecx, DWORD PTR size$[rsp]
  00081	81 e1 00 ff 00
	00		 and	 ecx, 65280		; 0000ff00H
  00087	c1 e1 08	 shl	 ecx, 8
  0008a	0b c1		 or	 eax, ecx
  0008c	8b 4c 24 24	 mov	 ecx, DWORD PTR size$[rsp]
  00090	81 e1 00 00 ff
	00		 and	 ecx, 16711680		; 00ff0000H
  00096	c1 e9 08	 shr	 ecx, 8
  00099	0b c1		 or	 eax, ecx
  0009b	8b 4c 24 24	 mov	 ecx, DWORD PTR size$[rsp]
  0009f	c1 e9 18	 shr	 ecx, 24
  000a2	81 e1 ff 00 00
	00		 and	 ecx, 255		; 000000ffH
  000a8	0b c1		 or	 eax, ecx
  000aa	89 44 24 24	 mov	 DWORD PTR size$[rsp], eax

; 1124 : 		tag = REVDWBYTES(tag);

  000ae	8b 44 24 20	 mov	 eax, DWORD PTR tag$[rsp]
  000b2	25 ff 00 00 00	 and	 eax, 255		; 000000ffH
  000b7	c1 e0 18	 shl	 eax, 24
  000ba	8b 4c 24 20	 mov	 ecx, DWORD PTR tag$[rsp]
  000be	81 e1 00 ff 00
	00		 and	 ecx, 65280		; 0000ff00H
  000c4	c1 e1 08	 shl	 ecx, 8
  000c7	0b c1		 or	 eax, ecx
  000c9	8b 4c 24 20	 mov	 ecx, DWORD PTR tag$[rsp]
  000cd	81 e1 00 00 ff
	00		 and	 ecx, 16711680		; 00ff0000H
  000d3	c1 e9 08	 shr	 ecx, 8
  000d6	0b c1		 or	 eax, ecx
  000d8	8b 4c 24 20	 mov	 ecx, DWORD PTR tag$[rsp]
  000dc	c1 e9 18	 shr	 ecx, 24
  000df	81 e1 ff 00 00
	00		 and	 ecx, 255		; 000000ffH
  000e5	0b c1		 or	 eax, ecx
  000e7	89 44 24 20	 mov	 DWORD PTR tag$[rsp], eax
$LN3@aiffWriteH:

; 1125 : 	}
; 1126 : 	if(wavDoWrite(sfdat,(char *)&tag,sizeof(DWORD))
; 1127 : 		|| wavDoWrite(sfdat,(char *)&size,sizeof(DWORD)))

  000eb	41 b8 04 00 00
	00		 mov	 r8d, 4
  000f1	48 8d 54 24 20	 lea	 rdx, QWORD PTR tag$[rsp]
  000f6	48 8b 8c 24 80
	00 00 00	 mov	 rcx, QWORD PTR sfdat$[rsp]
  000fe	e8 00 00 00 00	 call	 wavDoWrite
  00103	85 c0		 test	 eax, eax
  00105	75 1c		 jne	 SHORT $LN5@aiffWriteH
  00107	41 b8 04 00 00
	00		 mov	 r8d, 4
  0010d	48 8d 54 24 24	 lea	 rdx, QWORD PTR size$[rsp]
  00112	48 8b 8c 24 80
	00 00 00	 mov	 rcx, QWORD PTR sfdat$[rsp]
  0011a	e8 00 00 00 00	 call	 wavDoWrite
  0011f	85 c0		 test	 eax, eax
  00121	74 0a		 je	 SHORT $LN4@aiffWriteH
$LN5@aiffWriteH:

; 1128 : 		return PSF_E_CANT_WRITE;

  00123	b8 fd ff ff ff	 mov	 eax, -3
  00128	e9 dc 05 00 00	 jmp	 $LN1@aiffWriteH
$LN4@aiffWriteH:

; 1129 : 	tag = TAG('A','I','F','F');

  0012d	c7 44 24 20 46
	46 49 41	 mov	 DWORD PTR tag$[rsp], 1095321158 ; 41494646H

; 1130 : 	if(sfdat->is_little_endian)

  00135	48 8b 84 24 80
	00 00 00	 mov	 rax, QWORD PTR sfdat$[rsp]
  0013d	83 78 2c 00	 cmp	 DWORD PTR [rax+44], 0
  00141	74 3d		 je	 SHORT $LN6@aiffWriteH

; 1131 : 		tag = REVDWBYTES(tag);

  00143	8b 44 24 20	 mov	 eax, DWORD PTR tag$[rsp]
  00147	25 ff 00 00 00	 and	 eax, 255		; 000000ffH
  0014c	c1 e0 18	 shl	 eax, 24
  0014f	8b 4c 24 20	 mov	 ecx, DWORD PTR tag$[rsp]
  00153	81 e1 00 ff 00
	00		 and	 ecx, 65280		; 0000ff00H
  00159	c1 e1 08	 shl	 ecx, 8
  0015c	0b c1		 or	 eax, ecx
  0015e	8b 4c 24 20	 mov	 ecx, DWORD PTR tag$[rsp]
  00162	81 e1 00 00 ff
	00		 and	 ecx, 16711680		; 00ff0000H
  00168	c1 e9 08	 shr	 ecx, 8
  0016b	0b c1		 or	 eax, ecx
  0016d	8b 4c 24 20	 mov	 ecx, DWORD PTR tag$[rsp]
  00171	c1 e9 18	 shr	 ecx, 24
  00174	81 e1 ff 00 00
	00		 and	 ecx, 255		; 000000ffH
  0017a	0b c1		 or	 eax, ecx
  0017c	89 44 24 20	 mov	 DWORD PTR tag$[rsp], eax
$LN6@aiffWriteH:

; 1132 : 	if(wavDoWrite(sfdat,(char *)&tag,sizeof(DWORD)))

  00180	41 b8 04 00 00
	00		 mov	 r8d, 4
  00186	48 8d 54 24 20	 lea	 rdx, QWORD PTR tag$[rsp]
  0018b	48 8b 8c 24 80
	00 00 00	 mov	 rcx, QWORD PTR sfdat$[rsp]
  00193	e8 00 00 00 00	 call	 wavDoWrite
  00198	85 c0		 test	 eax, eax
  0019a	74 0a		 je	 SHORT $LN7@aiffWriteH

; 1133 : 		return PSF_E_CANT_WRITE;

  0019c	b8 fd ff ff ff	 mov	 eax, -3
  001a1	e9 63 05 00 00	 jmp	 $LN1@aiffWriteH
$LN7@aiffWriteH:

; 1134 : 
; 1135 : 	tag = TAG('C','O','M','M');

  001a6	c7 44 24 20 4d
	4d 4f 43	 mov	 DWORD PTR tag$[rsp], 1129270605 ; 434f4d4dH

; 1136 : 	size = 18;

  001ae	c7 44 24 24 12
	00 00 00	 mov	 DWORD PTR size$[rsp], 18

; 1137 : 	if(sfdat->is_little_endian){

  001b6	48 8b 84 24 80
	00 00 00	 mov	 rax, QWORD PTR sfdat$[rsp]
  001be	83 78 2c 00	 cmp	 DWORD PTR [rax+44], 0
  001c2	74 7a		 je	 SHORT $LN8@aiffWriteH

; 1138 : 		size = REVDWBYTES(size);	

  001c4	8b 44 24 24	 mov	 eax, DWORD PTR size$[rsp]
  001c8	25 ff 00 00 00	 and	 eax, 255		; 000000ffH
  001cd	c1 e0 18	 shl	 eax, 24
  001d0	8b 4c 24 24	 mov	 ecx, DWORD PTR size$[rsp]
  001d4	81 e1 00 ff 00
	00		 and	 ecx, 65280		; 0000ff00H
  001da	c1 e1 08	 shl	 ecx, 8
  001dd	0b c1		 or	 eax, ecx
  001df	8b 4c 24 24	 mov	 ecx, DWORD PTR size$[rsp]
  001e3	81 e1 00 00 ff
	00		 and	 ecx, 16711680		; 00ff0000H
  001e9	c1 e9 08	 shr	 ecx, 8
  001ec	0b c1		 or	 eax, ecx
  001ee	8b 4c 24 24	 mov	 ecx, DWORD PTR size$[rsp]
  001f2	c1 e9 18	 shr	 ecx, 24
  001f5	81 e1 ff 00 00
	00		 and	 ecx, 255		; 000000ffH
  001fb	0b c1		 or	 eax, ecx
  001fd	89 44 24 24	 mov	 DWORD PTR size$[rsp], eax

; 1139 : 		tag = REVDWBYTES(tag);

  00201	8b 44 24 20	 mov	 eax, DWORD PTR tag$[rsp]
  00205	25 ff 00 00 00	 and	 eax, 255		; 000000ffH
  0020a	c1 e0 18	 shl	 eax, 24
  0020d	8b 4c 24 20	 mov	 ecx, DWORD PTR tag$[rsp]
  00211	81 e1 00 ff 00
	00		 and	 ecx, 65280		; 0000ff00H
  00217	c1 e1 08	 shl	 ecx, 8
  0021a	0b c1		 or	 eax, ecx
  0021c	8b 4c 24 20	 mov	 ecx, DWORD PTR tag$[rsp]
  00220	81 e1 00 00 ff
	00		 and	 ecx, 16711680		; 00ff0000H
  00226	c1 e9 08	 shr	 ecx, 8
  00229	0b c1		 or	 eax, ecx
  0022b	8b 4c 24 20	 mov	 ecx, DWORD PTR tag$[rsp]
  0022f	c1 e9 18	 shr	 ecx, 24
  00232	81 e1 ff 00 00
	00		 and	 ecx, 255		; 000000ffH
  00238	0b c1		 or	 eax, ecx
  0023a	89 44 24 20	 mov	 DWORD PTR tag$[rsp], eax
$LN8@aiffWriteH:

; 1140 : 	}
; 1141 : 	if(wavDoWrite(sfdat,(char *)&tag,sizeof(DWORD))
; 1142 : 		|| wavDoWrite(sfdat,(char *)&size,sizeof(DWORD)))

  0023e	41 b8 04 00 00
	00		 mov	 r8d, 4
  00244	48 8d 54 24 20	 lea	 rdx, QWORD PTR tag$[rsp]
  00249	48 8b 8c 24 80
	00 00 00	 mov	 rcx, QWORD PTR sfdat$[rsp]
  00251	e8 00 00 00 00	 call	 wavDoWrite
  00256	85 c0		 test	 eax, eax
  00258	75 1c		 jne	 SHORT $LN10@aiffWriteH
  0025a	41 b8 04 00 00
	00		 mov	 r8d, 4
  00260	48 8d 54 24 24	 lea	 rdx, QWORD PTR size$[rsp]
  00265	48 8b 8c 24 80
	00 00 00	 mov	 rcx, QWORD PTR sfdat$[rsp]
  0026d	e8 00 00 00 00	 call	 wavDoWrite
  00272	85 c0		 test	 eax, eax
  00274	74 0a		 je	 SHORT $LN9@aiffWriteH
$LN10@aiffWriteH:

; 1143 : 		return PSF_E_CANT_WRITE;

  00276	b8 fd ff ff ff	 mov	 eax, -3
  0027b	e9 89 04 00 00	 jmp	 $LN1@aiffWriteH
$LN9@aiffWriteH:

; 1144 : 	if(fgetpos(sfdat->file,&bytepos))

  00280	48 8d 54 24 38	 lea	 rdx, QWORD PTR bytepos$[rsp]
  00285	48 8b 84 24 80
	00 00 00	 mov	 rax, QWORD PTR sfdat$[rsp]
  0028d	48 8b 08	 mov	 rcx, QWORD PTR [rax]
  00290	e8 00 00 00 00	 call	 fgetpos
  00295	85 c0		 test	 eax, eax
  00297	74 0a		 je	 SHORT $LN11@aiffWriteH

; 1145 : 	    return PSF_E_CANT_SEEK;

  00299	b8 f5 ff ff ff	 mov	 eax, -11
  0029e	e9 66 04 00 00	 jmp	 $LN1@aiffWriteH
$LN11@aiffWriteH:

; 1146 : 	sfdat->fmtoffset = bytepos;

  002a3	48 8b 84 24 80
	00 00 00	 mov	 rax, QWORD PTR sfdat$[rsp]
  002ab	48 8b 4c 24 38	 mov	 rcx, QWORD PTR bytepos$[rsp]
  002b0	48 89 48 40	 mov	 QWORD PTR [rax+64], rcx

; 1147 : 
; 1148 : 	wData = sfdat->fmt.Format.nChannels;

  002b4	48 8b 84 24 80
	00 00 00	 mov	 rax, QWORD PTR sfdat$[rsp]
  002bc	0f b7 40 52	 movzx	 eax, WORD PTR [rax+82]
  002c0	66 89 44 24 28	 mov	 WORD PTR wData$[rsp], ax

; 1149 : 	if(sfdat->is_little_endian)

  002c5	48 8b 84 24 80
	00 00 00	 mov	 rax, QWORD PTR sfdat$[rsp]
  002cd	83 78 2c 00	 cmp	 DWORD PTR [rax+44], 0
  002d1	74 22		 je	 SHORT $LN12@aiffWriteH

; 1150 : 		wData = (WORD) REVWBYTES(wData);

  002d3	0f b7 44 24 28	 movzx	 eax, WORD PTR wData$[rsp]
  002d8	25 ff 00 00 00	 and	 eax, 255		; 000000ffH
  002dd	c1 e0 08	 shl	 eax, 8
  002e0	0f b7 4c 24 28	 movzx	 ecx, WORD PTR wData$[rsp]
  002e5	c1 f9 08	 sar	 ecx, 8
  002e8	81 e1 ff 00 00
	00		 and	 ecx, 255		; 000000ffH
  002ee	0b c1		 or	 eax, ecx
  002f0	66 89 44 24 28	 mov	 WORD PTR wData$[rsp], ax
$LN12@aiffWriteH:

; 1151 : 	if(wavDoWrite(sfdat,(char *)&wData,sizeof(WORD)))

  002f5	41 b8 02 00 00
	00		 mov	 r8d, 2
  002fb	48 8d 54 24 28	 lea	 rdx, QWORD PTR wData$[rsp]
  00300	48 8b 8c 24 80
	00 00 00	 mov	 rcx, QWORD PTR sfdat$[rsp]
  00308	e8 00 00 00 00	 call	 wavDoWrite
  0030d	85 c0		 test	 eax, eax
  0030f	74 0a		 je	 SHORT $LN13@aiffWriteH

; 1152 : 		return PSF_E_CANT_WRITE;

  00311	b8 fd ff ff ff	 mov	 eax, -3
  00316	e9 ee 03 00 00	 jmp	 $LN1@aiffWriteH
$LN13@aiffWriteH:

; 1153 : 
; 1154 : 	dwData = 0;			/* nFrames */

  0031b	c7 44 24 40 00
	00 00 00	 mov	 DWORD PTR dwData$[rsp], 0

; 1155 : 	if(wavDoWrite(sfdat,(char *)&dwData,sizeof(DWORD)))

  00323	41 b8 04 00 00
	00		 mov	 r8d, 4
  00329	48 8d 54 24 40	 lea	 rdx, QWORD PTR dwData$[rsp]
  0032e	48 8b 8c 24 80
	00 00 00	 mov	 rcx, QWORD PTR sfdat$[rsp]
  00336	e8 00 00 00 00	 call	 wavDoWrite
  0033b	85 c0		 test	 eax, eax
  0033d	74 0a		 je	 SHORT $LN14@aiffWriteH

; 1156 : 		return PSF_E_CANT_WRITE;

  0033f	b8 fd ff ff ff	 mov	 eax, -3
  00344	e9 c0 03 00 00	 jmp	 $LN1@aiffWriteH
$LN14@aiffWriteH:

; 1157 : 
; 1158 : 	wData = sfdat->fmt.Format.wBitsPerSample;

  00349	48 8b 84 24 80
	00 00 00	 mov	 rax, QWORD PTR sfdat$[rsp]
  00351	0f b7 40 5e	 movzx	 eax, WORD PTR [rax+94]
  00355	66 89 44 24 28	 mov	 WORD PTR wData$[rsp], ax

; 1159 : 	if(sfdat->is_little_endian)

  0035a	48 8b 84 24 80
	00 00 00	 mov	 rax, QWORD PTR sfdat$[rsp]
  00362	83 78 2c 00	 cmp	 DWORD PTR [rax+44], 0
  00366	74 22		 je	 SHORT $LN15@aiffWriteH

; 1160 : 		wData = (WORD) REVWBYTES(wData);

  00368	0f b7 44 24 28	 movzx	 eax, WORD PTR wData$[rsp]
  0036d	25 ff 00 00 00	 and	 eax, 255		; 000000ffH
  00372	c1 e0 08	 shl	 eax, 8
  00375	0f b7 4c 24 28	 movzx	 ecx, WORD PTR wData$[rsp]
  0037a	c1 f9 08	 sar	 ecx, 8
  0037d	81 e1 ff 00 00
	00		 and	 ecx, 255		; 000000ffH
  00383	0b c1		 or	 eax, ecx
  00385	66 89 44 24 28	 mov	 WORD PTR wData$[rsp], ax
$LN15@aiffWriteH:

; 1161 : 	if(wavDoWrite(sfdat,(char *)&wData,sizeof(WORD)))

  0038a	41 b8 02 00 00
	00		 mov	 r8d, 2
  00390	48 8d 54 24 28	 lea	 rdx, QWORD PTR wData$[rsp]
  00395	48 8b 8c 24 80
	00 00 00	 mov	 rcx, QWORD PTR sfdat$[rsp]
  0039d	e8 00 00 00 00	 call	 wavDoWrite
  003a2	85 c0		 test	 eax, eax
  003a4	74 0a		 je	 SHORT $LN16@aiffWriteH

; 1162 : 		return PSF_E_CANT_WRITE;

  003a6	b8 fd ff ff ff	 mov	 eax, -3
  003ab	e9 59 03 00 00	 jmp	 $LN1@aiffWriteH
$LN16@aiffWriteH:

; 1163 : 	double_to_ieee_80((double)sfdat->fmt.Format.nSamplesPerSec,ieee);

  003b0	48 8b 84 24 80
	00 00 00	 mov	 rax, QWORD PTR sfdat$[rsp]
  003b8	8b 40 54	 mov	 eax, DWORD PTR [rax+84]
  003bb	f2 48 0f 2a c0	 cvtsi2sd xmm0, rax
  003c0	48 8d 54 24 50	 lea	 rdx, QWORD PTR ieee$[rsp]
  003c5	e8 00 00 00 00	 call	 double_to_ieee_80

; 1164 : 	
; 1165 : 	if(wavDoWrite(sfdat,ieee,10))

  003ca	41 b8 0a 00 00
	00		 mov	 r8d, 10
  003d0	48 8d 54 24 50	 lea	 rdx, QWORD PTR ieee$[rsp]
  003d5	48 8b 8c 24 80
	00 00 00	 mov	 rcx, QWORD PTR sfdat$[rsp]
  003dd	e8 00 00 00 00	 call	 wavDoWrite
  003e2	85 c0		 test	 eax, eax
  003e4	74 0a		 je	 SHORT $LN17@aiffWriteH

; 1166 : 		return PSF_E_CANT_WRITE;

  003e6	b8 fd ff ff ff	 mov	 eax, -3
  003eb	e9 19 03 00 00	 jmp	 $LN1@aiffWriteH
$LN17@aiffWriteH:

; 1167 : 	if(sfdat->pPeaks){

  003f0	48 8b 84 24 80
	00 00 00	 mov	 rax, QWORD PTR sfdat$[rsp]
  003f8	48 83 b8 80 00
	00 00 00	 cmp	 QWORD PTR [rax+128], 0
  00400	0f 84 ee 01 00
	00		 je	 $LN18@aiffWriteH

; 1168 : 		DWORD version = 1, now = 0;

  00406	c7 44 24 2c 01
	00 00 00	 mov	 DWORD PTR version$1[rsp], 1
  0040e	c7 44 24 44 00
	00 00 00	 mov	 DWORD PTR now$2[rsp], 0

; 1169 : 		peaks = sfdat->pPeaks;

  00416	48 8b 84 24 80
	00 00 00	 mov	 rax, QWORD PTR sfdat$[rsp]
  0041e	48 8b 80 80 00
	00 00		 mov	 rax, QWORD PTR [rax+128]
  00425	48 89 44 24 48	 mov	 QWORD PTR peaks$[rsp], rax

; 1170 : 		
; 1171 : 		tag = TAG('P','E','A','K');		

  0042a	c7 44 24 20 4b
	41 45 50	 mov	 DWORD PTR tag$[rsp], 1346715979 ; 5045414bH

; 1172 : 		size = 2 * sizeof(DWORD) + sizeof(PSF_CHPEAK) * sfdat->fmt.Format.nChannels;

  00432	48 8b 84 24 80
	00 00 00	 mov	 rax, QWORD PTR sfdat$[rsp]
  0043a	0f b7 40 52	 movzx	 eax, WORD PTR [rax+82]
  0043e	48 8d 04 c5 08
	00 00 00	 lea	 rax, QWORD PTR [rax*8+8]
  00446	89 44 24 24	 mov	 DWORD PTR size$[rsp], eax

; 1173 : 		if(sfdat->is_little_endian){

  0044a	48 8b 84 24 80
	00 00 00	 mov	 rax, QWORD PTR sfdat$[rsp]
  00452	83 78 2c 00	 cmp	 DWORD PTR [rax+44], 0
  00456	0f 84 b7 00 00
	00		 je	 $LN19@aiffWriteH

; 1174 : 			size = REVDWBYTES(size);

  0045c	8b 44 24 24	 mov	 eax, DWORD PTR size$[rsp]
  00460	25 ff 00 00 00	 and	 eax, 255		; 000000ffH
  00465	c1 e0 18	 shl	 eax, 24
  00468	8b 4c 24 24	 mov	 ecx, DWORD PTR size$[rsp]
  0046c	81 e1 00 ff 00
	00		 and	 ecx, 65280		; 0000ff00H
  00472	c1 e1 08	 shl	 ecx, 8
  00475	0b c1		 or	 eax, ecx
  00477	8b 4c 24 24	 mov	 ecx, DWORD PTR size$[rsp]
  0047b	81 e1 00 00 ff
	00		 and	 ecx, 16711680		; 00ff0000H
  00481	c1 e9 08	 shr	 ecx, 8
  00484	0b c1		 or	 eax, ecx
  00486	8b 4c 24 24	 mov	 ecx, DWORD PTR size$[rsp]
  0048a	c1 e9 18	 shr	 ecx, 24
  0048d	81 e1 ff 00 00
	00		 and	 ecx, 255		; 000000ffH
  00493	0b c1		 or	 eax, ecx
  00495	89 44 24 24	 mov	 DWORD PTR size$[rsp], eax

; 1175 : 			version  = REVDWBYTES(version);

  00499	8b 44 24 2c	 mov	 eax, DWORD PTR version$1[rsp]
  0049d	25 ff 00 00 00	 and	 eax, 255		; 000000ffH
  004a2	c1 e0 18	 shl	 eax, 24
  004a5	8b 4c 24 2c	 mov	 ecx, DWORD PTR version$1[rsp]
  004a9	81 e1 00 ff 00
	00		 and	 ecx, 65280		; 0000ff00H
  004af	c1 e1 08	 shl	 ecx, 8
  004b2	0b c1		 or	 eax, ecx
  004b4	8b 4c 24 2c	 mov	 ecx, DWORD PTR version$1[rsp]
  004b8	81 e1 00 00 ff
	00		 and	 ecx, 16711680		; 00ff0000H
  004be	c1 e9 08	 shr	 ecx, 8
  004c1	0b c1		 or	 eax, ecx
  004c3	8b 4c 24 2c	 mov	 ecx, DWORD PTR version$1[rsp]
  004c7	c1 e9 18	 shr	 ecx, 24
  004ca	81 e1 ff 00 00
	00		 and	 ecx, 255		; 000000ffH
  004d0	0b c1		 or	 eax, ecx
  004d2	89 44 24 2c	 mov	 DWORD PTR version$1[rsp], eax

; 1176 : 			tag = REVDWBYTES(tag);

  004d6	8b 44 24 20	 mov	 eax, DWORD PTR tag$[rsp]
  004da	25 ff 00 00 00	 and	 eax, 255		; 000000ffH
  004df	c1 e0 18	 shl	 eax, 24
  004e2	8b 4c 24 20	 mov	 ecx, DWORD PTR tag$[rsp]
  004e6	81 e1 00 ff 00
	00		 and	 ecx, 65280		; 0000ff00H
  004ec	c1 e1 08	 shl	 ecx, 8
  004ef	0b c1		 or	 eax, ecx
  004f1	8b 4c 24 20	 mov	 ecx, DWORD PTR tag$[rsp]
  004f5	81 e1 00 00 ff
	00		 and	 ecx, 16711680		; 00ff0000H
  004fb	c1 e9 08	 shr	 ecx, 8
  004fe	0b c1		 or	 eax, ecx
  00500	8b 4c 24 20	 mov	 ecx, DWORD PTR tag$[rsp]
  00504	c1 e9 18	 shr	 ecx, 24
  00507	81 e1 ff 00 00
	00		 and	 ecx, 255		; 000000ffH
  0050d	0b c1		 or	 eax, ecx
  0050f	89 44 24 20	 mov	 DWORD PTR tag$[rsp], eax
$LN19@aiffWriteH:

; 1177 : 		}
; 1178 : 		if(wavDoWrite(sfdat,(char *)&tag,sizeof(DWORD))
; 1179 : 			|| wavDoWrite(sfdat,(char *)&size,sizeof(DWORD))
; 1180 : 			|| wavDoWrite(sfdat,(char *)&version,sizeof(DWORD)))

  00513	41 b8 04 00 00
	00		 mov	 r8d, 4
  00519	48 8d 54 24 20	 lea	 rdx, QWORD PTR tag$[rsp]
  0051e	48 8b 8c 24 80
	00 00 00	 mov	 rcx, QWORD PTR sfdat$[rsp]
  00526	e8 00 00 00 00	 call	 wavDoWrite
  0052b	85 c0		 test	 eax, eax
  0052d	75 38		 jne	 SHORT $LN21@aiffWriteH
  0052f	41 b8 04 00 00
	00		 mov	 r8d, 4
  00535	48 8d 54 24 24	 lea	 rdx, QWORD PTR size$[rsp]
  0053a	48 8b 8c 24 80
	00 00 00	 mov	 rcx, QWORD PTR sfdat$[rsp]
  00542	e8 00 00 00 00	 call	 wavDoWrite
  00547	85 c0		 test	 eax, eax
  00549	75 1c		 jne	 SHORT $LN21@aiffWriteH
  0054b	41 b8 04 00 00
	00		 mov	 r8d, 4
  00551	48 8d 54 24 2c	 lea	 rdx, QWORD PTR version$1[rsp]
  00556	48 8b 8c 24 80
	00 00 00	 mov	 rcx, QWORD PTR sfdat$[rsp]
  0055e	e8 00 00 00 00	 call	 wavDoWrite
  00563	85 c0		 test	 eax, eax
  00565	74 0a		 je	 SHORT $LN20@aiffWriteH
$LN21@aiffWriteH:

; 1181 : 			return PSF_E_CANT_WRITE;

  00567	b8 fd ff ff ff	 mov	 eax, -3
  0056c	e9 98 01 00 00	 jmp	 $LN1@aiffWriteH
$LN20@aiffWriteH:

; 1182 : 		if(fgetpos(sfdat->file,&bytepos))

  00571	48 8d 54 24 38	 lea	 rdx, QWORD PTR bytepos$[rsp]
  00576	48 8b 84 24 80
	00 00 00	 mov	 rax, QWORD PTR sfdat$[rsp]
  0057e	48 8b 08	 mov	 rcx, QWORD PTR [rax]
  00581	e8 00 00 00 00	 call	 fgetpos
  00586	85 c0		 test	 eax, eax
  00588	74 0a		 je	 SHORT $LN22@aiffWriteH

; 1183 : 		    return PSF_E_CANT_SEEK;

  0058a	b8 f5 ff ff ff	 mov	 eax, -11
  0058f	e9 75 01 00 00	 jmp	 $LN1@aiffWriteH
$LN22@aiffWriteH:

; 1184 : 		sfdat->peakoffset = bytepos;  /*we need to update time*/

  00594	48 8b 84 24 80
	00 00 00	 mov	 rax, QWORD PTR sfdat$[rsp]
  0059c	48 8b 4c 24 38	 mov	 rcx, QWORD PTR bytepos$[rsp]
  005a1	48 89 48 48	 mov	 QWORD PTR [rax+72], rcx

; 1185 : 
; 1186 : 		if(wavDoWrite(sfdat,(char *) &now,sizeof(DWORD))
; 1187 : 			|| wavDoWrite(sfdat,(char *) peaks, sizeof(PSF_CHPEAK) * sfdat->fmt.Format.nChannels))

  005a5	41 b8 04 00 00
	00		 mov	 r8d, 4
  005ab	48 8d 54 24 44	 lea	 rdx, QWORD PTR now$2[rsp]
  005b0	48 8b 8c 24 80
	00 00 00	 mov	 rcx, QWORD PTR sfdat$[rsp]
  005b8	e8 00 00 00 00	 call	 wavDoWrite
  005bd	85 c0		 test	 eax, eax
  005bf	75 29		 jne	 SHORT $LN24@aiffWriteH
  005c1	48 8b 84 24 80
	00 00 00	 mov	 rax, QWORD PTR sfdat$[rsp]
  005c9	0f b7 40 52	 movzx	 eax, WORD PTR [rax+82]
  005cd	48 c1 e0 03	 shl	 rax, 3
  005d1	44 8b c0	 mov	 r8d, eax
  005d4	48 8b 54 24 48	 mov	 rdx, QWORD PTR peaks$[rsp]
  005d9	48 8b 8c 24 80
	00 00 00	 mov	 rcx, QWORD PTR sfdat$[rsp]
  005e1	e8 00 00 00 00	 call	 wavDoWrite
  005e6	85 c0		 test	 eax, eax
  005e8	74 0a		 je	 SHORT $LN23@aiffWriteH
$LN24@aiffWriteH:

; 1188 : 			return PSF_E_CANT_WRITE;

  005ea	b8 fd ff ff ff	 mov	 eax, -3
  005ef	e9 15 01 00 00	 jmp	 $LN1@aiffWriteH
$LN23@aiffWriteH:
$LN18@aiffWriteH:

; 1189 : 	}
; 1190 : 
; 1191 : 	tag = TAG('S','S','N','D');

  005f4	c7 44 24 20 44
	4e 53 53	 mov	 DWORD PTR tag$[rsp], 1397968452 ; 53534e44H

; 1192 : 	size = offset = blocksize = 0;

  005fc	c7 44 24 34 00
	00 00 00	 mov	 DWORD PTR blocksize$[rsp], 0
  00604	8b 44 24 34	 mov	 eax, DWORD PTR blocksize$[rsp]
  00608	89 44 24 30	 mov	 DWORD PTR offset$[rsp], eax
  0060c	8b 44 24 30	 mov	 eax, DWORD PTR offset$[rsp]
  00610	89 44 24 24	 mov	 DWORD PTR size$[rsp], eax

; 1193 : 	if(sfdat->is_little_endian)

  00614	48 8b 84 24 80
	00 00 00	 mov	 rax, QWORD PTR sfdat$[rsp]
  0061c	83 78 2c 00	 cmp	 DWORD PTR [rax+44], 0
  00620	74 3d		 je	 SHORT $LN25@aiffWriteH

; 1194 : 			tag = REVDWBYTES(tag);

  00622	8b 44 24 20	 mov	 eax, DWORD PTR tag$[rsp]
  00626	25 ff 00 00 00	 and	 eax, 255		; 000000ffH
  0062b	c1 e0 18	 shl	 eax, 24
  0062e	8b 4c 24 20	 mov	 ecx, DWORD PTR tag$[rsp]
  00632	81 e1 00 ff 00
	00		 and	 ecx, 65280		; 0000ff00H
  00638	c1 e1 08	 shl	 ecx, 8
  0063b	0b c1		 or	 eax, ecx
  0063d	8b 4c 24 20	 mov	 ecx, DWORD PTR tag$[rsp]
  00641	81 e1 00 00 ff
	00		 and	 ecx, 16711680		; 00ff0000H
  00647	c1 e9 08	 shr	 ecx, 8
  0064a	0b c1		 or	 eax, ecx
  0064c	8b 4c 24 20	 mov	 ecx, DWORD PTR tag$[rsp]
  00650	c1 e9 18	 shr	 ecx, 24
  00653	81 e1 ff 00 00
	00		 and	 ecx, 255		; 000000ffH
  00659	0b c1		 or	 eax, ecx
  0065b	89 44 24 20	 mov	 DWORD PTR tag$[rsp], eax
$LN25@aiffWriteH:

; 1195 : 	if(wavDoWrite(sfdat,(char *)&tag,sizeof(DWORD))
; 1196 : 			|| wavDoWrite(sfdat,(char *)&size,sizeof(DWORD))
; 1197 : 			|| wavDoWrite(sfdat,(char *)&offset,sizeof(DWORD))
; 1198 : 			|| wavDoWrite(sfdat,(char *)&blocksize,sizeof(DWORD)))

  0065f	41 b8 04 00 00
	00		 mov	 r8d, 4
  00665	48 8d 54 24 20	 lea	 rdx, QWORD PTR tag$[rsp]
  0066a	48 8b 8c 24 80
	00 00 00	 mov	 rcx, QWORD PTR sfdat$[rsp]
  00672	e8 00 00 00 00	 call	 wavDoWrite
  00677	85 c0		 test	 eax, eax
  00679	75 54		 jne	 SHORT $LN27@aiffWriteH
  0067b	41 b8 04 00 00
	00		 mov	 r8d, 4
  00681	48 8d 54 24 24	 lea	 rdx, QWORD PTR size$[rsp]
  00686	48 8b 8c 24 80
	00 00 00	 mov	 rcx, QWORD PTR sfdat$[rsp]
  0068e	e8 00 00 00 00	 call	 wavDoWrite
  00693	85 c0		 test	 eax, eax
  00695	75 38		 jne	 SHORT $LN27@aiffWriteH
  00697	41 b8 04 00 00
	00		 mov	 r8d, 4
  0069d	48 8d 54 24 30	 lea	 rdx, QWORD PTR offset$[rsp]
  006a2	48 8b 8c 24 80
	00 00 00	 mov	 rcx, QWORD PTR sfdat$[rsp]
  006aa	e8 00 00 00 00	 call	 wavDoWrite
  006af	85 c0		 test	 eax, eax
  006b1	75 1c		 jne	 SHORT $LN27@aiffWriteH
  006b3	41 b8 04 00 00
	00		 mov	 r8d, 4
  006b9	48 8d 54 24 34	 lea	 rdx, QWORD PTR blocksize$[rsp]
  006be	48 8b 8c 24 80
	00 00 00	 mov	 rcx, QWORD PTR sfdat$[rsp]
  006c6	e8 00 00 00 00	 call	 wavDoWrite
  006cb	85 c0		 test	 eax, eax
  006cd	74 07		 je	 SHORT $LN26@aiffWriteH
$LN27@aiffWriteH:

; 1199 : 			return PSF_E_CANT_WRITE;

  006cf	b8 fd ff ff ff	 mov	 eax, -3
  006d4	eb 33		 jmp	 SHORT $LN1@aiffWriteH
$LN26@aiffWriteH:

; 1200 : 	if(fgetpos(sfdat->file,&bytepos))

  006d6	48 8d 54 24 38	 lea	 rdx, QWORD PTR bytepos$[rsp]
  006db	48 8b 84 24 80
	00 00 00	 mov	 rax, QWORD PTR sfdat$[rsp]
  006e3	48 8b 08	 mov	 rcx, QWORD PTR [rax]
  006e6	e8 00 00 00 00	 call	 fgetpos
  006eb	85 c0		 test	 eax, eax
  006ed	74 07		 je	 SHORT $LN28@aiffWriteH

; 1201 : 	    return PSF_E_CANT_SEEK;

  006ef	b8 f5 ff ff ff	 mov	 eax, -11
  006f4	eb 13		 jmp	 SHORT $LN1@aiffWriteH
$LN28@aiffWriteH:

; 1202 : 	sfdat->dataoffset = bytepos;

  006f6	48 8b 84 24 80
	00 00 00	 mov	 rax, QWORD PTR sfdat$[rsp]
  006fe	48 8b 4c 24 38	 mov	 rcx, QWORD PTR bytepos$[rsp]
  00703	48 89 48 38	 mov	 QWORD PTR [rax+56], rcx

; 1203 : 	return PSF_E_NOERROR;

  00707	33 c0		 xor	 eax, eax
$LN1@aiffWriteH:

; 1204 : }

  00709	48 8b 4c 24 60	 mov	 rcx, QWORD PTR __$ArrayPad$[rsp]
  0070e	48 33 cc	 xor	 rcx, rsp
  00711	e8 00 00 00 00	 call	 __security_check_cookie
  00716	48 83 c4 78	 add	 rsp, 120		; 00000078H
  0071a	c3		 ret	 0
aiffWriteHeader ENDP
_TEXT	ENDS
; Function compile flags: /Odtp
; File k:\audio\editing\current\programming\the_audio_programming_book\test_code\misc\psfmaster\portsf\portsf.c
_TEXT	SEGMENT
tag$ = 32
size$ = 36
version$1 = 40
now$2 = 44
pfmt$ = 48
pGuid$ = 56
bytepos$ = 64
peaks$ = 72
sfdat$ = 96
waveExWriteHeader PROC

; 979  : {

  00000	48 89 4c 24 08	 mov	 QWORD PTR [rsp+8], rcx
  00005	48 83 ec 58	 sub	 rsp, 88			; 00000058H

; 980  : 	DWORD tag,size;	
; 981  : 	WAVEFORMATEXTENSIBLE *pfmt;
; 982  : 	PSF_CHPEAK *peaks;	
; 983  : 	GUID *pGuid = NULL;

  00009	48 c7 44 24 38
	00 00 00 00	 mov	 QWORD PTR pGuid$[rsp], 0

; 984  : 	fpos_t bytepos;
; 985  : #ifdef _DEBUG
; 986  : 	assert(sfdat);
; 987  : 	assert(sfdat->file);
; 988  : 	assert(sfdat->chformat > STDWAVE);
; 989  : 	assert(sfdat->nFrames==0);
; 990  : 	assert(!sfdat->isRead);
; 991  : 	assert(sfdat->fmt.Format.nChannels != 0);
; 992  : #endif
; 993  : 	/*clear pPeaks array*/
; 994  : 	if(sfdat->pPeaks)

  00012	48 8b 44 24 60	 mov	 rax, QWORD PTR sfdat$[rsp]
  00017	48 83 b8 80 00
	00 00 00	 cmp	 QWORD PTR [rax+128], 0
  0001f	74 23		 je	 SHORT $LN2@waveExWrit

; 995  : 		memset((char *)sfdat->pPeaks,0,sizeof(PSF_CHPEAK) * sfdat->fmt.Format.nChannels);

  00021	48 8b 44 24 60	 mov	 rax, QWORD PTR sfdat$[rsp]
  00026	0f b7 40 52	 movzx	 eax, WORD PTR [rax+82]
  0002a	48 c1 e0 03	 shl	 rax, 3
  0002e	4c 8b c0	 mov	 r8, rax
  00031	33 d2		 xor	 edx, edx
  00033	48 8b 44 24 60	 mov	 rax, QWORD PTR sfdat$[rsp]
  00038	48 8b 88 80 00
	00 00		 mov	 rcx, QWORD PTR [rax+128]
  0003f	e8 00 00 00 00	 call	 memset
$LN2@waveExWrit:

; 996  : 	/* complete WAVE-EX format fields: */
; 997  :     if(sfdat->chformat==MC_BFMT){

  00044	48 8b 44 24 60	 mov	 rax, QWORD PTR sfdat$[rsp]
  00049	83 78 7c 06	 cmp	 DWORD PTR [rax+124], 6
  0004d	75 27		 jne	 SHORT $LN3@waveExWrit

; 998  :         if(sfdat->samptype== PSF_SAMP_IEEE_FLOAT){				

  0004f	48 8b 44 24 60	 mov	 rax, QWORD PTR sfdat$[rsp]
  00054	83 78 30 05	 cmp	 DWORD PTR [rax+48], 5
  00058	75 0e		 jne	 SHORT $LN5@waveExWrit

; 999  :             pGuid = (GUID *)  &SUBTYPE_AMBISONIC_B_FORMAT_IEEE_FLOAT;

  0005a	48 8d 05 00 00
	00 00		 lea	 rax, OFFSET FLAT:SUBTYPE_AMBISONIC_B_FORMAT_IEEE_FLOAT
  00061	48 89 44 24 38	 mov	 QWORD PTR pGuid$[rsp], rax

; 1000 :         }

  00066	eb 0c		 jmp	 SHORT $LN6@waveExWrit
$LN5@waveExWrit:

; 1001 :         else{		
; 1002 :             pGuid =(GUID *) &SUBTYPE_AMBISONIC_B_FORMAT_PCM;

  00068	48 8d 05 00 00
	00 00		 lea	 rax, OFFSET FLAT:SUBTYPE_AMBISONIC_B_FORMAT_PCM
  0006f	48 89 44 24 38	 mov	 QWORD PTR pGuid$[rsp], rax
$LN6@waveExWrit:

; 1003 :         }
; 1004 :         
; 1005 :     }else {

  00074	eb 28		 jmp	 SHORT $LN4@waveExWrit
$LN3@waveExWrit:

; 1006 :         if(sfdat->fmt.Format.wFormatTag==  WAVE_FORMAT_IEEE_FLOAT){				

  00076	48 8b 44 24 60	 mov	 rax, QWORD PTR sfdat$[rsp]
  0007b	0f b7 40 50	 movzx	 eax, WORD PTR [rax+80]
  0007f	83 f8 03	 cmp	 eax, 3
  00082	75 0e		 jne	 SHORT $LN7@waveExWrit

; 1007 :             pGuid = (GUID *)  &KSDATAFORMAT_SUBTYPE_IEEE_FLOAT;

  00084	48 8d 05 00 00
	00 00		 lea	 rax, OFFSET FLAT:KSDATAFORMAT_SUBTYPE_IEEE_FLOAT
  0008b	48 89 44 24 38	 mov	 QWORD PTR pGuid$[rsp], rax

; 1008 :         }

  00090	eb 0c		 jmp	 SHORT $LN8@waveExWrit
$LN7@waveExWrit:

; 1009 :         else{		
; 1010 :             pGuid =(GUID *) &KSDATAFORMAT_SUBTYPE_PCM;

  00092	48 8d 05 00 00
	00 00		 lea	 rax, OFFSET FLAT:KSDATAFORMAT_SUBTYPE_PCM
  00099	48 89 44 24 38	 mov	 QWORD PTR pGuid$[rsp], rax
$LN8@waveExWrit:
$LN4@waveExWrit:

; 1011 :         }
; 1012 :     }
; 1013 : 	sfdat->fmt.Format.wFormatTag = WAVE_FORMAT_EXTENSIBLE;

  0009e	b8 fe ff 00 00	 mov	 eax, 65534		; 0000fffeH
  000a3	48 8b 4c 24 60	 mov	 rcx, QWORD PTR sfdat$[rsp]
  000a8	66 89 41 50	 mov	 WORD PTR [rcx+80], ax

; 1014 : 	memcpy((char *) &(sfdat->fmt.SubFormat),(char *)pGuid,sizeof(GUID));

  000ac	48 8b 44 24 60	 mov	 rax, QWORD PTR sfdat$[rsp]
  000b1	48 83 c0 6c	 add	 rax, 108		; 0000006cH
  000b5	41 b8 10 00 00
	00		 mov	 r8d, 16
  000bb	48 8b 54 24 38	 mov	 rdx, QWORD PTR pGuid$[rsp]
  000c0	48 8b c8	 mov	 rcx, rax
  000c3	e8 00 00 00 00	 call	 memcpy

; 1015 : 	tag = TAG('R','I','F','F');

  000c8	c7 44 24 20 46
	46 49 52	 mov	 DWORD PTR tag$[rsp], 1380533830 ; 52494646H

; 1016 : 	size = 0;

  000d0	c7 44 24 24 00
	00 00 00	 mov	 DWORD PTR size$[rsp], 0

; 1017 : 	if(!sfdat->is_little_endian)

  000d8	48 8b 44 24 60	 mov	 rax, QWORD PTR sfdat$[rsp]
  000dd	83 78 2c 00	 cmp	 DWORD PTR [rax+44], 0
  000e1	75 3f		 jne	 SHORT $LN9@waveExWrit

; 1018 : 		size = REVDWBYTES(size);

  000e3	8b 44 24 24	 mov	 eax, DWORD PTR size$[rsp]
  000e7	25 ff 00 00 00	 and	 eax, 255		; 000000ffH
  000ec	c1 e0 18	 shl	 eax, 24
  000ef	8b 4c 24 24	 mov	 ecx, DWORD PTR size$[rsp]
  000f3	81 e1 00 ff 00
	00		 and	 ecx, 65280		; 0000ff00H
  000f9	c1 e1 08	 shl	 ecx, 8
  000fc	0b c1		 or	 eax, ecx
  000fe	8b 4c 24 24	 mov	 ecx, DWORD PTR size$[rsp]
  00102	81 e1 00 00 ff
	00		 and	 ecx, 16711680		; 00ff0000H
  00108	c1 e9 08	 shr	 ecx, 8
  0010b	0b c1		 or	 eax, ecx
  0010d	8b 4c 24 24	 mov	 ecx, DWORD PTR size$[rsp]
  00111	c1 e9 18	 shr	 ecx, 24
  00114	81 e1 ff 00 00
	00		 and	 ecx, 255		; 000000ffH
  0011a	0b c1		 or	 eax, ecx
  0011c	89 44 24 24	 mov	 DWORD PTR size$[rsp], eax
  00120	eb 3d		 jmp	 SHORT $LN10@waveExWrit
$LN9@waveExWrit:

; 1019 : 	else
; 1020 : 		tag = REVDWBYTES(tag);

  00122	8b 44 24 20	 mov	 eax, DWORD PTR tag$[rsp]
  00126	25 ff 00 00 00	 and	 eax, 255		; 000000ffH
  0012b	c1 e0 18	 shl	 eax, 24
  0012e	8b 4c 24 20	 mov	 ecx, DWORD PTR tag$[rsp]
  00132	81 e1 00 ff 00
	00		 and	 ecx, 65280		; 0000ff00H
  00138	c1 e1 08	 shl	 ecx, 8
  0013b	0b c1		 or	 eax, ecx
  0013d	8b 4c 24 20	 mov	 ecx, DWORD PTR tag$[rsp]
  00141	81 e1 00 00 ff
	00		 and	 ecx, 16711680		; 00ff0000H
  00147	c1 e9 08	 shr	 ecx, 8
  0014a	0b c1		 or	 eax, ecx
  0014c	8b 4c 24 20	 mov	 ecx, DWORD PTR tag$[rsp]
  00150	c1 e9 18	 shr	 ecx, 24
  00153	81 e1 ff 00 00
	00		 and	 ecx, 255		; 000000ffH
  00159	0b c1		 or	 eax, ecx
  0015b	89 44 24 20	 mov	 DWORD PTR tag$[rsp], eax
$LN10@waveExWrit:

; 1021 : 	if(wavDoWrite(sfdat,(char *)&tag,sizeof(DWORD))
; 1022 : 		|| wavDoWrite(sfdat,(char *)&size,sizeof(DWORD)))

  0015f	41 b8 04 00 00
	00		 mov	 r8d, 4
  00165	48 8d 54 24 20	 lea	 rdx, QWORD PTR tag$[rsp]
  0016a	48 8b 4c 24 60	 mov	 rcx, QWORD PTR sfdat$[rsp]
  0016f	e8 00 00 00 00	 call	 wavDoWrite
  00174	85 c0		 test	 eax, eax
  00176	75 19		 jne	 SHORT $LN12@waveExWrit
  00178	41 b8 04 00 00
	00		 mov	 r8d, 4
  0017e	48 8d 54 24 24	 lea	 rdx, QWORD PTR size$[rsp]
  00183	48 8b 4c 24 60	 mov	 rcx, QWORD PTR sfdat$[rsp]
  00188	e8 00 00 00 00	 call	 wavDoWrite
  0018d	85 c0		 test	 eax, eax
  0018f	74 0a		 je	 SHORT $LN11@waveExWrit
$LN12@waveExWrit:

; 1023 : 		return PSF_E_CANT_WRITE;

  00191	b8 fd ff ff ff	 mov	 eax, -3
  00196	e9 e4 04 00 00	 jmp	 $LN1@waveExWrit
$LN11@waveExWrit:

; 1024 : 	tag = TAG('W','A','V','E');

  0019b	c7 44 24 20 45
	56 41 57	 mov	 DWORD PTR tag$[rsp], 1463899717 ; 57415645H

; 1025 : 	if(sfdat->is_little_endian)

  001a3	48 8b 44 24 60	 mov	 rax, QWORD PTR sfdat$[rsp]
  001a8	83 78 2c 00	 cmp	 DWORD PTR [rax+44], 0
  001ac	74 3d		 je	 SHORT $LN13@waveExWrit

; 1026 : 		tag = REVDWBYTES(tag);

  001ae	8b 44 24 20	 mov	 eax, DWORD PTR tag$[rsp]
  001b2	25 ff 00 00 00	 and	 eax, 255		; 000000ffH
  001b7	c1 e0 18	 shl	 eax, 24
  001ba	8b 4c 24 20	 mov	 ecx, DWORD PTR tag$[rsp]
  001be	81 e1 00 ff 00
	00		 and	 ecx, 65280		; 0000ff00H
  001c4	c1 e1 08	 shl	 ecx, 8
  001c7	0b c1		 or	 eax, ecx
  001c9	8b 4c 24 20	 mov	 ecx, DWORD PTR tag$[rsp]
  001cd	81 e1 00 00 ff
	00		 and	 ecx, 16711680		; 00ff0000H
  001d3	c1 e9 08	 shr	 ecx, 8
  001d6	0b c1		 or	 eax, ecx
  001d8	8b 4c 24 20	 mov	 ecx, DWORD PTR tag$[rsp]
  001dc	c1 e9 18	 shr	 ecx, 24
  001df	81 e1 ff 00 00
	00		 and	 ecx, 255		; 000000ffH
  001e5	0b c1		 or	 eax, ecx
  001e7	89 44 24 20	 mov	 DWORD PTR tag$[rsp], eax
$LN13@waveExWrit:

; 1027 : 	if(wavDoWrite(sfdat,(char *)&tag,sizeof(DWORD)))

  001eb	41 b8 04 00 00
	00		 mov	 r8d, 4
  001f1	48 8d 54 24 20	 lea	 rdx, QWORD PTR tag$[rsp]
  001f6	48 8b 4c 24 60	 mov	 rcx, QWORD PTR sfdat$[rsp]
  001fb	e8 00 00 00 00	 call	 wavDoWrite
  00200	85 c0		 test	 eax, eax
  00202	74 0a		 je	 SHORT $LN14@waveExWrit

; 1028 : 		return PSF_E_CANT_WRITE;

  00204	b8 fd ff ff ff	 mov	 eax, -3
  00209	e9 71 04 00 00	 jmp	 $LN1@waveExWrit
$LN14@waveExWrit:

; 1029 : 	pfmt = &(sfdat->fmt);

  0020e	48 8b 44 24 60	 mov	 rax, QWORD PTR sfdat$[rsp]
  00213	48 83 c0 50	 add	 rax, 80			; 00000050H
  00217	48 89 44 24 30	 mov	 QWORD PTR pfmt$[rsp], rax

; 1030 : 	tag = TAG('f','m','t',' ');	

  0021c	c7 44 24 20 20
	74 6d 66	 mov	 DWORD PTR tag$[rsp], 1718449184 ; 666d7420H

; 1031 : 	size = sizeof_WFMTEX;	

  00224	c7 44 24 24 28
	00 00 00	 mov	 DWORD PTR size$[rsp], 40 ; 00000028H

; 1032 : 	if(!sfdat->is_little_endian){

  0022c	48 8b 44 24 60	 mov	 rax, QWORD PTR sfdat$[rsp]
  00231	83 78 2c 00	 cmp	 DWORD PTR [rax+44], 0
  00235	75 49		 jne	 SHORT $LN15@waveExWrit

; 1033 : 		size = REVDWBYTES(size);

  00237	8b 44 24 24	 mov	 eax, DWORD PTR size$[rsp]
  0023b	25 ff 00 00 00	 and	 eax, 255		; 000000ffH
  00240	c1 e0 18	 shl	 eax, 24
  00243	8b 4c 24 24	 mov	 ecx, DWORD PTR size$[rsp]
  00247	81 e1 00 ff 00
	00		 and	 ecx, 65280		; 0000ff00H
  0024d	c1 e1 08	 shl	 ecx, 8
  00250	0b c1		 or	 eax, ecx
  00252	8b 4c 24 24	 mov	 ecx, DWORD PTR size$[rsp]
  00256	81 e1 00 00 ff
	00		 and	 ecx, 16711680		; 00ff0000H
  0025c	c1 e9 08	 shr	 ecx, 8
  0025f	0b c1		 or	 eax, ecx
  00261	8b 4c 24 24	 mov	 ecx, DWORD PTR size$[rsp]
  00265	c1 e9 18	 shr	 ecx, 24
  00268	81 e1 ff 00 00
	00		 and	 ecx, 255		; 000000ffH
  0026e	0b c1		 or	 eax, ecx
  00270	89 44 24 24	 mov	 DWORD PTR size$[rsp], eax

; 1034 : 		fmtExSwapBytes(sfdat);

  00274	48 8b 4c 24 60	 mov	 rcx, QWORD PTR sfdat$[rsp]
  00279	e8 00 00 00 00	 call	 fmtExSwapBytes

; 1035 : 	}

  0027e	eb 3d		 jmp	 SHORT $LN16@waveExWrit
$LN15@waveExWrit:

; 1036 : 	else
; 1037 : 		tag = REVDWBYTES(tag);

  00280	8b 44 24 20	 mov	 eax, DWORD PTR tag$[rsp]
  00284	25 ff 00 00 00	 and	 eax, 255		; 000000ffH
  00289	c1 e0 18	 shl	 eax, 24
  0028c	8b 4c 24 20	 mov	 ecx, DWORD PTR tag$[rsp]
  00290	81 e1 00 ff 00
	00		 and	 ecx, 65280		; 0000ff00H
  00296	c1 e1 08	 shl	 ecx, 8
  00299	0b c1		 or	 eax, ecx
  0029b	8b 4c 24 20	 mov	 ecx, DWORD PTR tag$[rsp]
  0029f	81 e1 00 00 ff
	00		 and	 ecx, 16711680		; 00ff0000H
  002a5	c1 e9 08	 shr	 ecx, 8
  002a8	0b c1		 or	 eax, ecx
  002aa	8b 4c 24 20	 mov	 ecx, DWORD PTR tag$[rsp]
  002ae	c1 e9 18	 shr	 ecx, 24
  002b1	81 e1 ff 00 00
	00		 and	 ecx, 255		; 000000ffH
  002b7	0b c1		 or	 eax, ecx
  002b9	89 44 24 20	 mov	 DWORD PTR tag$[rsp], eax
$LN16@waveExWrit:

; 1038 : 	if(wavDoWrite(sfdat,(char *)&tag,sizeof(DWORD))
; 1039 : 		|| wavDoWrite(sfdat,(char *)&size,sizeof(DWORD)))		

  002bd	41 b8 04 00 00
	00		 mov	 r8d, 4
  002c3	48 8d 54 24 20	 lea	 rdx, QWORD PTR tag$[rsp]
  002c8	48 8b 4c 24 60	 mov	 rcx, QWORD PTR sfdat$[rsp]
  002cd	e8 00 00 00 00	 call	 wavDoWrite
  002d2	85 c0		 test	 eax, eax
  002d4	75 19		 jne	 SHORT $LN18@waveExWrit
  002d6	41 b8 04 00 00
	00		 mov	 r8d, 4
  002dc	48 8d 54 24 24	 lea	 rdx, QWORD PTR size$[rsp]
  002e1	48 8b 4c 24 60	 mov	 rcx, QWORD PTR sfdat$[rsp]
  002e6	e8 00 00 00 00	 call	 wavDoWrite
  002eb	85 c0		 test	 eax, eax
  002ed	74 0a		 je	 SHORT $LN17@waveExWrit
$LN18@waveExWrit:

; 1040 : 		return PSF_E_CANT_WRITE;

  002ef	b8 fd ff ff ff	 mov	 eax, -3
  002f4	e9 86 03 00 00	 jmp	 $LN1@waveExWrit
$LN17@waveExWrit:

; 1041 : 	if(fgetpos(sfdat->file,&bytepos))

  002f9	48 8d 54 24 40	 lea	 rdx, QWORD PTR bytepos$[rsp]
  002fe	48 8b 44 24 60	 mov	 rax, QWORD PTR sfdat$[rsp]
  00303	48 8b 08	 mov	 rcx, QWORD PTR [rax]
  00306	e8 00 00 00 00	 call	 fgetpos
  0030b	85 c0		 test	 eax, eax
  0030d	74 0a		 je	 SHORT $LN19@waveExWrit

; 1042 : 	    return PSF_E_CANT_SEEK;

  0030f	b8 f5 ff ff ff	 mov	 eax, -11
  00314	e9 66 03 00 00	 jmp	 $LN1@waveExWrit
$LN19@waveExWrit:

; 1043 : 	sfdat->fmtoffset = bytepos;

  00319	48 8b 44 24 60	 mov	 rax, QWORD PTR sfdat$[rsp]
  0031e	48 8b 4c 24 40	 mov	 rcx, QWORD PTR bytepos$[rsp]
  00323	48 89 48 40	 mov	 QWORD PTR [rax+64], rcx

; 1044 : 	/* write fmt elementwise, to avoid C alignment traps with WORD */
; 1045 : 	/* 16byte format...*/
; 1046 : 	if(wavDoWrite(sfdat,(char *)pfmt,sizeof(WAVEFORMAT))	
; 1047 : 	/** cbSize... */
; 1048 : 	||wavDoWrite(sfdat,(char *) &(pfmt->Format.cbSize),sizeof(WORD))	
; 1049 : 	/* validbits... */
; 1050 : 	||wavDoWrite(sfdat,(char *) &(pfmt->Samples.wValidBitsPerSample),sizeof(WORD))	
; 1051 : 	/* ChannelMask .... */
; 1052 : 	||wavDoWrite(sfdat,(char *) &(pfmt->dwChannelMask),sizeof(DWORD))		
; 1053 : 	/*  and the GUID */
; 1054 : 	||wavDoWrite(sfdat,(char *) &(pfmt->SubFormat),sizeof(GUID)))

  00327	41 b8 10 00 00
	00		 mov	 r8d, 16
  0032d	48 8b 54 24 30	 mov	 rdx, QWORD PTR pfmt$[rsp]
  00332	48 8b 4c 24 60	 mov	 rcx, QWORD PTR sfdat$[rsp]
  00337	e8 00 00 00 00	 call	 wavDoWrite
  0033c	85 c0		 test	 eax, eax
  0033e	0f 85 80 00 00
	00		 jne	 $LN21@waveExWrit
  00344	48 8b 44 24 30	 mov	 rax, QWORD PTR pfmt$[rsp]
  00349	48 83 c0 10	 add	 rax, 16
  0034d	41 b8 02 00 00
	00		 mov	 r8d, 2
  00353	48 8b d0	 mov	 rdx, rax
  00356	48 8b 4c 24 60	 mov	 rcx, QWORD PTR sfdat$[rsp]
  0035b	e8 00 00 00 00	 call	 wavDoWrite
  00360	85 c0		 test	 eax, eax
  00362	75 60		 jne	 SHORT $LN21@waveExWrit
  00364	48 8b 44 24 30	 mov	 rax, QWORD PTR pfmt$[rsp]
  00369	48 83 c0 14	 add	 rax, 20
  0036d	41 b8 02 00 00
	00		 mov	 r8d, 2
  00373	48 8b d0	 mov	 rdx, rax
  00376	48 8b 4c 24 60	 mov	 rcx, QWORD PTR sfdat$[rsp]
  0037b	e8 00 00 00 00	 call	 wavDoWrite
  00380	85 c0		 test	 eax, eax
  00382	75 40		 jne	 SHORT $LN21@waveExWrit
  00384	48 8b 44 24 30	 mov	 rax, QWORD PTR pfmt$[rsp]
  00389	48 83 c0 18	 add	 rax, 24
  0038d	41 b8 04 00 00
	00		 mov	 r8d, 4
  00393	48 8b d0	 mov	 rdx, rax
  00396	48 8b 4c 24 60	 mov	 rcx, QWORD PTR sfdat$[rsp]
  0039b	e8 00 00 00 00	 call	 wavDoWrite
  003a0	85 c0		 test	 eax, eax
  003a2	75 20		 jne	 SHORT $LN21@waveExWrit
  003a4	48 8b 44 24 30	 mov	 rax, QWORD PTR pfmt$[rsp]
  003a9	48 83 c0 1c	 add	 rax, 28
  003ad	41 b8 10 00 00
	00		 mov	 r8d, 16
  003b3	48 8b d0	 mov	 rdx, rax
  003b6	48 8b 4c 24 60	 mov	 rcx, QWORD PTR sfdat$[rsp]
  003bb	e8 00 00 00 00	 call	 wavDoWrite
  003c0	85 c0		 test	 eax, eax
  003c2	74 0a		 je	 SHORT $LN20@waveExWrit
$LN21@waveExWrit:

; 1055 : 		return PSF_E_CANT_WRITE;

  003c4	b8 fd ff ff ff	 mov	 eax, -3
  003c9	e9 b1 02 00 00	 jmp	 $LN1@waveExWrit
$LN20@waveExWrit:

; 1056 :         /* reswap it all */
; 1057 :         if(!sfdat->is_little_endian){

  003ce	48 8b 44 24 60	 mov	 rax, QWORD PTR sfdat$[rsp]
  003d3	83 78 2c 00	 cmp	 DWORD PTR [rax+44], 0
  003d7	75 0a		 jne	 SHORT $LN22@waveExWrit

; 1058 :             fmtExSwapBytes(sfdat);

  003d9	48 8b 4c 24 60	 mov	 rcx, QWORD PTR sfdat$[rsp]
  003de	e8 00 00 00 00	 call	 fmtExSwapBytes
$LN22@waveExWrit:

; 1059 :         }
; 1060 : 	if(sfdat->pPeaks){

  003e3	48 8b 44 24 60	 mov	 rax, QWORD PTR sfdat$[rsp]
  003e8	48 83 b8 80 00
	00 00 00	 cmp	 QWORD PTR [rax+128], 0
  003f0	0f 84 cb 01 00
	00		 je	 $LN23@waveExWrit

; 1061 : 		DWORD version = 1, now = 0;

  003f6	c7 44 24 28 01
	00 00 00	 mov	 DWORD PTR version$1[rsp], 1
  003fe	c7 44 24 2c 00
	00 00 00	 mov	 DWORD PTR now$2[rsp], 0

; 1062 : 		
; 1063 :         peaks = sfdat->pPeaks;		

  00406	48 8b 44 24 60	 mov	 rax, QWORD PTR sfdat$[rsp]
  0040b	48 8b 80 80 00
	00 00		 mov	 rax, QWORD PTR [rax+128]
  00412	48 89 44 24 48	 mov	 QWORD PTR peaks$[rsp], rax

; 1064 : 		tag = TAG('P','E','A','K');		

  00417	c7 44 24 20 4b
	41 45 50	 mov	 DWORD PTR tag$[rsp], 1346715979 ; 5045414bH

; 1065 : 		size = 2 * sizeof(DWORD) + sizeof(PSF_CHPEAK) * pfmt->Format.nChannels;

  0041f	48 8b 44 24 30	 mov	 rax, QWORD PTR pfmt$[rsp]
  00424	0f b7 40 02	 movzx	 eax, WORD PTR [rax+2]
  00428	48 8d 04 c5 08
	00 00 00	 lea	 rax, QWORD PTR [rax*8+8]
  00430	89 44 24 24	 mov	 DWORD PTR size$[rsp], eax

; 1066 : 		if(!sfdat->is_little_endian){

  00434	48 8b 44 24 60	 mov	 rax, QWORD PTR sfdat$[rsp]
  00439	83 78 2c 00	 cmp	 DWORD PTR [rax+44], 0
  0043d	75 7c		 jne	 SHORT $LN24@waveExWrit

; 1067 : 			size = REVDWBYTES(size);

  0043f	8b 44 24 24	 mov	 eax, DWORD PTR size$[rsp]
  00443	25 ff 00 00 00	 and	 eax, 255		; 000000ffH
  00448	c1 e0 18	 shl	 eax, 24
  0044b	8b 4c 24 24	 mov	 ecx, DWORD PTR size$[rsp]
  0044f	81 e1 00 ff 00
	00		 and	 ecx, 65280		; 0000ff00H
  00455	c1 e1 08	 shl	 ecx, 8
  00458	0b c1		 or	 eax, ecx
  0045a	8b 4c 24 24	 mov	 ecx, DWORD PTR size$[rsp]
  0045e	81 e1 00 00 ff
	00		 and	 ecx, 16711680		; 00ff0000H
  00464	c1 e9 08	 shr	 ecx, 8
  00467	0b c1		 or	 eax, ecx
  00469	8b 4c 24 24	 mov	 ecx, DWORD PTR size$[rsp]
  0046d	c1 e9 18	 shr	 ecx, 24
  00470	81 e1 ff 00 00
	00		 and	 ecx, 255		; 000000ffH
  00476	0b c1		 or	 eax, ecx
  00478	89 44 24 24	 mov	 DWORD PTR size$[rsp], eax

; 1068 : 			version  = REVDWBYTES(version);

  0047c	8b 44 24 28	 mov	 eax, DWORD PTR version$1[rsp]
  00480	25 ff 00 00 00	 and	 eax, 255		; 000000ffH
  00485	c1 e0 18	 shl	 eax, 24
  00488	8b 4c 24 28	 mov	 ecx, DWORD PTR version$1[rsp]
  0048c	81 e1 00 ff 00
	00		 and	 ecx, 65280		; 0000ff00H
  00492	c1 e1 08	 shl	 ecx, 8
  00495	0b c1		 or	 eax, ecx
  00497	8b 4c 24 28	 mov	 ecx, DWORD PTR version$1[rsp]
  0049b	81 e1 00 00 ff
	00		 and	 ecx, 16711680		; 00ff0000H
  004a1	c1 e9 08	 shr	 ecx, 8
  004a4	0b c1		 or	 eax, ecx
  004a6	8b 4c 24 28	 mov	 ecx, DWORD PTR version$1[rsp]
  004aa	c1 e9 18	 shr	 ecx, 24
  004ad	81 e1 ff 00 00
	00		 and	 ecx, 255		; 000000ffH
  004b3	0b c1		 or	 eax, ecx
  004b5	89 44 24 28	 mov	 DWORD PTR version$1[rsp], eax

; 1069 : 		}

  004b9	eb 3d		 jmp	 SHORT $LN25@waveExWrit
$LN24@waveExWrit:

; 1070 : 		else
; 1071 : 			tag = REVDWBYTES(tag);

  004bb	8b 44 24 20	 mov	 eax, DWORD PTR tag$[rsp]
  004bf	25 ff 00 00 00	 and	 eax, 255		; 000000ffH
  004c4	c1 e0 18	 shl	 eax, 24
  004c7	8b 4c 24 20	 mov	 ecx, DWORD PTR tag$[rsp]
  004cb	81 e1 00 ff 00
	00		 and	 ecx, 65280		; 0000ff00H
  004d1	c1 e1 08	 shl	 ecx, 8
  004d4	0b c1		 or	 eax, ecx
  004d6	8b 4c 24 20	 mov	 ecx, DWORD PTR tag$[rsp]
  004da	81 e1 00 00 ff
	00		 and	 ecx, 16711680		; 00ff0000H
  004e0	c1 e9 08	 shr	 ecx, 8
  004e3	0b c1		 or	 eax, ecx
  004e5	8b 4c 24 20	 mov	 ecx, DWORD PTR tag$[rsp]
  004e9	c1 e9 18	 shr	 ecx, 24
  004ec	81 e1 ff 00 00
	00		 and	 ecx, 255		; 000000ffH
  004f2	0b c1		 or	 eax, ecx
  004f4	89 44 24 20	 mov	 DWORD PTR tag$[rsp], eax
$LN25@waveExWrit:

; 1072 : 		if(wavDoWrite(sfdat,(char *)&tag,sizeof(DWORD))
; 1073 : 			|| wavDoWrite(sfdat,(char *)&size,sizeof(DWORD))
; 1074 : 			|| wavDoWrite(sfdat,(char *)&version,sizeof(DWORD)))

  004f8	41 b8 04 00 00
	00		 mov	 r8d, 4
  004fe	48 8d 54 24 20	 lea	 rdx, QWORD PTR tag$[rsp]
  00503	48 8b 4c 24 60	 mov	 rcx, QWORD PTR sfdat$[rsp]
  00508	e8 00 00 00 00	 call	 wavDoWrite
  0050d	85 c0		 test	 eax, eax
  0050f	75 32		 jne	 SHORT $LN27@waveExWrit
  00511	41 b8 04 00 00
	00		 mov	 r8d, 4
  00517	48 8d 54 24 24	 lea	 rdx, QWORD PTR size$[rsp]
  0051c	48 8b 4c 24 60	 mov	 rcx, QWORD PTR sfdat$[rsp]
  00521	e8 00 00 00 00	 call	 wavDoWrite
  00526	85 c0		 test	 eax, eax
  00528	75 19		 jne	 SHORT $LN27@waveExWrit
  0052a	41 b8 04 00 00
	00		 mov	 r8d, 4
  00530	48 8d 54 24 28	 lea	 rdx, QWORD PTR version$1[rsp]
  00535	48 8b 4c 24 60	 mov	 rcx, QWORD PTR sfdat$[rsp]
  0053a	e8 00 00 00 00	 call	 wavDoWrite
  0053f	85 c0		 test	 eax, eax
  00541	74 0a		 je	 SHORT $LN26@waveExWrit
$LN27@waveExWrit:

; 1075 : 			return PSF_E_CANT_WRITE;

  00543	b8 fd ff ff ff	 mov	 eax, -3
  00548	e9 32 01 00 00	 jmp	 $LN1@waveExWrit
$LN26@waveExWrit:

; 1076 : 		if(fgetpos(sfdat->file,&bytepos))

  0054d	48 8d 54 24 40	 lea	 rdx, QWORD PTR bytepos$[rsp]
  00552	48 8b 44 24 60	 mov	 rax, QWORD PTR sfdat$[rsp]
  00557	48 8b 08	 mov	 rcx, QWORD PTR [rax]
  0055a	e8 00 00 00 00	 call	 fgetpos
  0055f	85 c0		 test	 eax, eax
  00561	74 0a		 je	 SHORT $LN28@waveExWrit

; 1077 : 		    return PSF_E_CANT_SEEK;

  00563	b8 f5 ff ff ff	 mov	 eax, -11
  00568	e9 12 01 00 00	 jmp	 $LN1@waveExWrit
$LN28@waveExWrit:

; 1078 : 		sfdat->peakoffset = bytepos;  /*we need to update time*/

  0056d	48 8b 44 24 60	 mov	 rax, QWORD PTR sfdat$[rsp]
  00572	48 8b 4c 24 40	 mov	 rcx, QWORD PTR bytepos$[rsp]
  00577	48 89 48 48	 mov	 QWORD PTR [rax+72], rcx

; 1079 : 		if(wavDoWrite(sfdat,(char *) &now,sizeof(DWORD))
; 1080 : 			|| wavDoWrite(sfdat,(char *) peaks, sizeof(PSF_CHPEAK) * sfdat->fmt.Format.nChannels))

  0057b	41 b8 04 00 00
	00		 mov	 r8d, 4
  00581	48 8d 54 24 2c	 lea	 rdx, QWORD PTR now$2[rsp]
  00586	48 8b 4c 24 60	 mov	 rcx, QWORD PTR sfdat$[rsp]
  0058b	e8 00 00 00 00	 call	 wavDoWrite
  00590	85 c0		 test	 eax, eax
  00592	75 23		 jne	 SHORT $LN30@waveExWrit
  00594	48 8b 44 24 60	 mov	 rax, QWORD PTR sfdat$[rsp]
  00599	0f b7 40 52	 movzx	 eax, WORD PTR [rax+82]
  0059d	48 c1 e0 03	 shl	 rax, 3
  005a1	44 8b c0	 mov	 r8d, eax
  005a4	48 8b 54 24 48	 mov	 rdx, QWORD PTR peaks$[rsp]
  005a9	48 8b 4c 24 60	 mov	 rcx, QWORD PTR sfdat$[rsp]
  005ae	e8 00 00 00 00	 call	 wavDoWrite
  005b3	85 c0		 test	 eax, eax
  005b5	74 0a		 je	 SHORT $LN29@waveExWrit
$LN30@waveExWrit:

; 1081 : 			return PSF_E_CANT_WRITE;

  005b7	b8 fd ff ff ff	 mov	 eax, -3
  005bc	e9 be 00 00 00	 jmp	 $LN1@waveExWrit
$LN29@waveExWrit:
$LN23@waveExWrit:

; 1082 : 	}
; 1083 : 	
; 1084 : 	tag = TAG('d','a','t','a');	

  005c1	c7 44 24 20 61
	74 61 64	 mov	 DWORD PTR tag$[rsp], 1684108385 ; 64617461H

; 1085 : 	size = 0;	

  005c9	c7 44 24 24 00
	00 00 00	 mov	 DWORD PTR size$[rsp], 0

; 1086 : 	if(sfdat->is_little_endian)

  005d1	48 8b 44 24 60	 mov	 rax, QWORD PTR sfdat$[rsp]
  005d6	83 78 2c 00	 cmp	 DWORD PTR [rax+44], 0
  005da	74 3d		 je	 SHORT $LN31@waveExWrit

; 1087 : 		tag = REVDWBYTES(tag);

  005dc	8b 44 24 20	 mov	 eax, DWORD PTR tag$[rsp]
  005e0	25 ff 00 00 00	 and	 eax, 255		; 000000ffH
  005e5	c1 e0 18	 shl	 eax, 24
  005e8	8b 4c 24 20	 mov	 ecx, DWORD PTR tag$[rsp]
  005ec	81 e1 00 ff 00
	00		 and	 ecx, 65280		; 0000ff00H
  005f2	c1 e1 08	 shl	 ecx, 8
  005f5	0b c1		 or	 eax, ecx
  005f7	8b 4c 24 20	 mov	 ecx, DWORD PTR tag$[rsp]
  005fb	81 e1 00 00 ff
	00		 and	 ecx, 16711680		; 00ff0000H
  00601	c1 e9 08	 shr	 ecx, 8
  00604	0b c1		 or	 eax, ecx
  00606	8b 4c 24 20	 mov	 ecx, DWORD PTR tag$[rsp]
  0060a	c1 e9 18	 shr	 ecx, 24
  0060d	81 e1 ff 00 00
	00		 and	 ecx, 255		; 000000ffH
  00613	0b c1		 or	 eax, ecx
  00615	89 44 24 20	 mov	 DWORD PTR tag$[rsp], eax
$LN31@waveExWrit:

; 1088 : 	if(wavDoWrite(sfdat,(char *)&tag,sizeof(DWORD))
; 1089 : 		|| wavDoWrite(sfdat,(char *)&size,sizeof(DWORD)))		

  00619	41 b8 04 00 00
	00		 mov	 r8d, 4
  0061f	48 8d 54 24 20	 lea	 rdx, QWORD PTR tag$[rsp]
  00624	48 8b 4c 24 60	 mov	 rcx, QWORD PTR sfdat$[rsp]
  00629	e8 00 00 00 00	 call	 wavDoWrite
  0062e	85 c0		 test	 eax, eax
  00630	75 19		 jne	 SHORT $LN33@waveExWrit
  00632	41 b8 04 00 00
	00		 mov	 r8d, 4
  00638	48 8d 54 24 24	 lea	 rdx, QWORD PTR size$[rsp]
  0063d	48 8b 4c 24 60	 mov	 rcx, QWORD PTR sfdat$[rsp]
  00642	e8 00 00 00 00	 call	 wavDoWrite
  00647	85 c0		 test	 eax, eax
  00649	74 07		 je	 SHORT $LN32@waveExWrit
$LN33@waveExWrit:

; 1090 : 		return PSF_E_CANT_WRITE;

  0064b	b8 fd ff ff ff	 mov	 eax, -3
  00650	eb 2d		 jmp	 SHORT $LN1@waveExWrit
$LN32@waveExWrit:

; 1091 : 	if(fgetpos(sfdat->file,&bytepos))

  00652	48 8d 54 24 40	 lea	 rdx, QWORD PTR bytepos$[rsp]
  00657	48 8b 44 24 60	 mov	 rax, QWORD PTR sfdat$[rsp]
  0065c	48 8b 08	 mov	 rcx, QWORD PTR [rax]
  0065f	e8 00 00 00 00	 call	 fgetpos
  00664	85 c0		 test	 eax, eax
  00666	74 07		 je	 SHORT $LN34@waveExWrit

; 1092 : 	    return PSF_E_CANT_SEEK;

  00668	b8 f5 ff ff ff	 mov	 eax, -11
  0066d	eb 10		 jmp	 SHORT $LN1@waveExWrit
$LN34@waveExWrit:

; 1093 : 	sfdat->dataoffset = bytepos;

  0066f	48 8b 44 24 60	 mov	 rax, QWORD PTR sfdat$[rsp]
  00674	48 8b 4c 24 40	 mov	 rcx, QWORD PTR bytepos$[rsp]
  00679	48 89 48 38	 mov	 QWORD PTR [rax+56], rcx

; 1094 : 	return PSF_E_NOERROR;

  0067d	33 c0		 xor	 eax, eax
$LN1@waveExWrit:

; 1095 : }

  0067f	48 83 c4 58	 add	 rsp, 88			; 00000058H
  00683	c3		 ret	 0
waveExWriteHeader ENDP
_TEXT	ENDS
; Function compile flags: /Odtp
; File k:\audio\editing\current\programming\the_audio_programming_book\test_code\misc\psfmaster\portsf\portsf.c
_TEXT	SEGMENT
cbSize$ = 32
tag$ = 36
size$ = 40
version$1 = 44
now$2 = 48
bytepos$ = 56
pfmt$ = 64
peaks$ = 72
sfdat$ = 96
wavWriteHeader PROC

; 871  : {

  00000	48 89 4c 24 08	 mov	 QWORD PTR [rsp+8], rcx
  00005	48 83 ec 58	 sub	 rsp, 88			; 00000058H

; 872  : 	DWORD tag,size;
; 873  : 	WORD cbSize = 0;

  00009	33 c0		 xor	 eax, eax
  0000b	66 89 44 24 20	 mov	 WORD PTR cbSize$[rsp], ax

; 874  : 	WAVEFORMATEX *pfmt;
; 875  : 	PSF_CHPEAK *peaks;
; 876  :     fpos_t bytepos;
; 877  : #ifdef _DEBUG
; 878  : 	assert(sfdat);
; 879  : 	assert(sfdat->file);
; 880  : 	assert(sfdat->riff_format == PSF_STDWAVE);
; 881  : 	assert(sfdat->nFrames == 0);
; 882  : 	assert(!sfdat->isRead);
; 883  : 	assert(sfdat->fmt.Format.nChannels != 0);
; 884  : #endif
; 885  : 
; 886  : 	/*clear pPeaks array*/
; 887  : 	if(sfdat->pPeaks)

  00010	48 8b 44 24 60	 mov	 rax, QWORD PTR sfdat$[rsp]
  00015	48 83 b8 80 00
	00 00 00	 cmp	 QWORD PTR [rax+128], 0
  0001d	74 23		 je	 SHORT $LN2@wavWriteHe

; 888  : 		memset((char *)sfdat->pPeaks,0,sizeof(PSF_CHPEAK) * sfdat->fmt.Format.nChannels);

  0001f	48 8b 44 24 60	 mov	 rax, QWORD PTR sfdat$[rsp]
  00024	0f b7 40 52	 movzx	 eax, WORD PTR [rax+82]
  00028	48 c1 e0 03	 shl	 rax, 3
  0002c	4c 8b c0	 mov	 r8, rax
  0002f	33 d2		 xor	 edx, edx
  00031	48 8b 44 24 60	 mov	 rax, QWORD PTR sfdat$[rsp]
  00036	48 8b 88 80 00
	00 00		 mov	 rcx, QWORD PTR [rax+128]
  0003d	e8 00 00 00 00	 call	 memset
$LN2@wavWriteHe:

; 889  : 
; 890  : 
; 891  : 	tag = TAG('R','I','F','F');

  00042	c7 44 24 24 46
	46 49 52	 mov	 DWORD PTR tag$[rsp], 1380533830 ; 52494646H

; 892  : 	size = 0;

  0004a	c7 44 24 28 00
	00 00 00	 mov	 DWORD PTR size$[rsp], 0

; 893  : 	if(!sfdat->is_little_endian)

  00052	48 8b 44 24 60	 mov	 rax, QWORD PTR sfdat$[rsp]
  00057	83 78 2c 00	 cmp	 DWORD PTR [rax+44], 0
  0005b	75 3f		 jne	 SHORT $LN3@wavWriteHe

; 894  : 		size = REVDWBYTES(size);

  0005d	8b 44 24 28	 mov	 eax, DWORD PTR size$[rsp]
  00061	25 ff 00 00 00	 and	 eax, 255		; 000000ffH
  00066	c1 e0 18	 shl	 eax, 24
  00069	8b 4c 24 28	 mov	 ecx, DWORD PTR size$[rsp]
  0006d	81 e1 00 ff 00
	00		 and	 ecx, 65280		; 0000ff00H
  00073	c1 e1 08	 shl	 ecx, 8
  00076	0b c1		 or	 eax, ecx
  00078	8b 4c 24 28	 mov	 ecx, DWORD PTR size$[rsp]
  0007c	81 e1 00 00 ff
	00		 and	 ecx, 16711680		; 00ff0000H
  00082	c1 e9 08	 shr	 ecx, 8
  00085	0b c1		 or	 eax, ecx
  00087	8b 4c 24 28	 mov	 ecx, DWORD PTR size$[rsp]
  0008b	c1 e9 18	 shr	 ecx, 24
  0008e	81 e1 ff 00 00
	00		 and	 ecx, 255		; 000000ffH
  00094	0b c1		 or	 eax, ecx
  00096	89 44 24 28	 mov	 DWORD PTR size$[rsp], eax
  0009a	eb 3d		 jmp	 SHORT $LN4@wavWriteHe
$LN3@wavWriteHe:

; 895  : 	else
; 896  : 		tag = REVDWBYTES(tag);

  0009c	8b 44 24 24	 mov	 eax, DWORD PTR tag$[rsp]
  000a0	25 ff 00 00 00	 and	 eax, 255		; 000000ffH
  000a5	c1 e0 18	 shl	 eax, 24
  000a8	8b 4c 24 24	 mov	 ecx, DWORD PTR tag$[rsp]
  000ac	81 e1 00 ff 00
	00		 and	 ecx, 65280		; 0000ff00H
  000b2	c1 e1 08	 shl	 ecx, 8
  000b5	0b c1		 or	 eax, ecx
  000b7	8b 4c 24 24	 mov	 ecx, DWORD PTR tag$[rsp]
  000bb	81 e1 00 00 ff
	00		 and	 ecx, 16711680		; 00ff0000H
  000c1	c1 e9 08	 shr	 ecx, 8
  000c4	0b c1		 or	 eax, ecx
  000c6	8b 4c 24 24	 mov	 ecx, DWORD PTR tag$[rsp]
  000ca	c1 e9 18	 shr	 ecx, 24
  000cd	81 e1 ff 00 00
	00		 and	 ecx, 255		; 000000ffH
  000d3	0b c1		 or	 eax, ecx
  000d5	89 44 24 24	 mov	 DWORD PTR tag$[rsp], eax
$LN4@wavWriteHe:

; 897  : 	
; 898  : 
; 899  : 	if(wavDoWrite(sfdat,(char *)&tag,sizeof(DWORD))
; 900  : 		|| wavDoWrite(sfdat,(char *)&size,sizeof(DWORD)))

  000d9	41 b8 04 00 00
	00		 mov	 r8d, 4
  000df	48 8d 54 24 24	 lea	 rdx, QWORD PTR tag$[rsp]
  000e4	48 8b 4c 24 60	 mov	 rcx, QWORD PTR sfdat$[rsp]
  000e9	e8 00 00 00 00	 call	 wavDoWrite
  000ee	85 c0		 test	 eax, eax
  000f0	75 19		 jne	 SHORT $LN6@wavWriteHe
  000f2	41 b8 04 00 00
	00		 mov	 r8d, 4
  000f8	48 8d 54 24 28	 lea	 rdx, QWORD PTR size$[rsp]
  000fd	48 8b 4c 24 60	 mov	 rcx, QWORD PTR sfdat$[rsp]
  00102	e8 00 00 00 00	 call	 wavDoWrite
  00107	85 c0		 test	 eax, eax
  00109	74 0a		 je	 SHORT $LN5@wavWriteHe
$LN6@wavWriteHe:

; 901  : 		return PSF_E_CANT_WRITE;

  0010b	b8 fd ff ff ff	 mov	 eax, -3
  00110	e9 a5 04 00 00	 jmp	 $LN1@wavWriteHe
$LN5@wavWriteHe:

; 902  : 
; 903  : 	tag = TAG('W','A','V','E');

  00115	c7 44 24 24 45
	56 41 57	 mov	 DWORD PTR tag$[rsp], 1463899717 ; 57415645H

; 904  : 	if(sfdat->is_little_endian)

  0011d	48 8b 44 24 60	 mov	 rax, QWORD PTR sfdat$[rsp]
  00122	83 78 2c 00	 cmp	 DWORD PTR [rax+44], 0
  00126	74 3d		 je	 SHORT $LN7@wavWriteHe

; 905  : 		tag = REVDWBYTES(tag);

  00128	8b 44 24 24	 mov	 eax, DWORD PTR tag$[rsp]
  0012c	25 ff 00 00 00	 and	 eax, 255		; 000000ffH
  00131	c1 e0 18	 shl	 eax, 24
  00134	8b 4c 24 24	 mov	 ecx, DWORD PTR tag$[rsp]
  00138	81 e1 00 ff 00
	00		 and	 ecx, 65280		; 0000ff00H
  0013e	c1 e1 08	 shl	 ecx, 8
  00141	0b c1		 or	 eax, ecx
  00143	8b 4c 24 24	 mov	 ecx, DWORD PTR tag$[rsp]
  00147	81 e1 00 00 ff
	00		 and	 ecx, 16711680		; 00ff0000H
  0014d	c1 e9 08	 shr	 ecx, 8
  00150	0b c1		 or	 eax, ecx
  00152	8b 4c 24 24	 mov	 ecx, DWORD PTR tag$[rsp]
  00156	c1 e9 18	 shr	 ecx, 24
  00159	81 e1 ff 00 00
	00		 and	 ecx, 255		; 000000ffH
  0015f	0b c1		 or	 eax, ecx
  00161	89 44 24 24	 mov	 DWORD PTR tag$[rsp], eax
$LN7@wavWriteHe:

; 906  : 	if(wavDoWrite(sfdat,(char *)&tag,sizeof(DWORD)))

  00165	41 b8 04 00 00
	00		 mov	 r8d, 4
  0016b	48 8d 54 24 24	 lea	 rdx, QWORD PTR tag$[rsp]
  00170	48 8b 4c 24 60	 mov	 rcx, QWORD PTR sfdat$[rsp]
  00175	e8 00 00 00 00	 call	 wavDoWrite
  0017a	85 c0		 test	 eax, eax
  0017c	74 0a		 je	 SHORT $LN8@wavWriteHe

; 907  : 		return PSF_E_CANT_WRITE;

  0017e	b8 fd ff ff ff	 mov	 eax, -3
  00183	e9 32 04 00 00	 jmp	 $LN1@wavWriteHe
$LN8@wavWriteHe:

; 908  : 
; 909  : 	pfmt = &(sfdat->fmt.Format);

  00188	48 8b 44 24 60	 mov	 rax, QWORD PTR sfdat$[rsp]
  0018d	48 83 c0 50	 add	 rax, 80			; 00000050H
  00191	48 89 44 24 40	 mov	 QWORD PTR pfmt$[rsp], rax

; 910  : 
; 911  : 	tag = TAG('f','m','t',' ');	

  00196	c7 44 24 24 20
	74 6d 66	 mov	 DWORD PTR tag$[rsp], 1718449184 ; 666d7420H

; 912  : 	size = sizeof(WAVEFORMAT);

  0019e	c7 44 24 28 10
	00 00 00	 mov	 DWORD PTR size$[rsp], 16

; 913  : 	if(sfdat->samptype==PSF_SAMP_IEEE_FLOAT)

  001a6	48 8b 44 24 60	 mov	 rax, QWORD PTR sfdat$[rsp]
  001ab	83 78 30 05	 cmp	 DWORD PTR [rax+48], 5
  001af	75 0c		 jne	 SHORT $LN9@wavWriteHe

; 914  : 		size += sizeof(WORD);		  /* for cbSize: WAVEOFRMATEX */

  001b1	8b 44 24 28	 mov	 eax, DWORD PTR size$[rsp]
  001b5	48 83 c0 02	 add	 rax, 2
  001b9	89 44 24 28	 mov	 DWORD PTR size$[rsp], eax
$LN9@wavWriteHe:

; 915  : 	if(!sfdat->is_little_endian){

  001bd	48 8b 44 24 60	 mov	 rax, QWORD PTR sfdat$[rsp]
  001c2	83 78 2c 00	 cmp	 DWORD PTR [rax+44], 0
  001c6	75 49		 jne	 SHORT $LN10@wavWriteHe

; 916  : 		size = REVDWBYTES(size);

  001c8	8b 44 24 28	 mov	 eax, DWORD PTR size$[rsp]
  001cc	25 ff 00 00 00	 and	 eax, 255		; 000000ffH
  001d1	c1 e0 18	 shl	 eax, 24
  001d4	8b 4c 24 28	 mov	 ecx, DWORD PTR size$[rsp]
  001d8	81 e1 00 ff 00
	00		 and	 ecx, 65280		; 0000ff00H
  001de	c1 e1 08	 shl	 ecx, 8
  001e1	0b c1		 or	 eax, ecx
  001e3	8b 4c 24 28	 mov	 ecx, DWORD PTR size$[rsp]
  001e7	81 e1 00 00 ff
	00		 and	 ecx, 16711680		; 00ff0000H
  001ed	c1 e9 08	 shr	 ecx, 8
  001f0	0b c1		 or	 eax, ecx
  001f2	8b 4c 24 28	 mov	 ecx, DWORD PTR size$[rsp]
  001f6	c1 e9 18	 shr	 ecx, 24
  001f9	81 e1 ff 00 00
	00		 and	 ecx, 255		; 000000ffH
  001ff	0b c1		 or	 eax, ecx
  00201	89 44 24 28	 mov	 DWORD PTR size$[rsp], eax

; 917  : 		fmtSwapBytes(sfdat);

  00205	48 8b 4c 24 60	 mov	 rcx, QWORD PTR sfdat$[rsp]
  0020a	e8 00 00 00 00	 call	 fmtSwapBytes

; 918  : 	}

  0020f	eb 3d		 jmp	 SHORT $LN11@wavWriteHe
$LN10@wavWriteHe:

; 919  : 	else
; 920  : 		tag = REVDWBYTES(tag);

  00211	8b 44 24 24	 mov	 eax, DWORD PTR tag$[rsp]
  00215	25 ff 00 00 00	 and	 eax, 255		; 000000ffH
  0021a	c1 e0 18	 shl	 eax, 24
  0021d	8b 4c 24 24	 mov	 ecx, DWORD PTR tag$[rsp]
  00221	81 e1 00 ff 00
	00		 and	 ecx, 65280		; 0000ff00H
  00227	c1 e1 08	 shl	 ecx, 8
  0022a	0b c1		 or	 eax, ecx
  0022c	8b 4c 24 24	 mov	 ecx, DWORD PTR tag$[rsp]
  00230	81 e1 00 00 ff
	00		 and	 ecx, 16711680		; 00ff0000H
  00236	c1 e9 08	 shr	 ecx, 8
  00239	0b c1		 or	 eax, ecx
  0023b	8b 4c 24 24	 mov	 ecx, DWORD PTR tag$[rsp]
  0023f	c1 e9 18	 shr	 ecx, 24
  00242	81 e1 ff 00 00
	00		 and	 ecx, 255		; 000000ffH
  00248	0b c1		 or	 eax, ecx
  0024a	89 44 24 24	 mov	 DWORD PTR tag$[rsp], eax
$LN11@wavWriteHe:

; 921  : 	if(wavDoWrite(sfdat,(char *)&tag,sizeof(DWORD))
; 922  : 		|| wavDoWrite(sfdat,(char *)&size,sizeof(DWORD)))		

  0024e	41 b8 04 00 00
	00		 mov	 r8d, 4
  00254	48 8d 54 24 24	 lea	 rdx, QWORD PTR tag$[rsp]
  00259	48 8b 4c 24 60	 mov	 rcx, QWORD PTR sfdat$[rsp]
  0025e	e8 00 00 00 00	 call	 wavDoWrite
  00263	85 c0		 test	 eax, eax
  00265	75 19		 jne	 SHORT $LN13@wavWriteHe
  00267	41 b8 04 00 00
	00		 mov	 r8d, 4
  0026d	48 8d 54 24 28	 lea	 rdx, QWORD PTR size$[rsp]
  00272	48 8b 4c 24 60	 mov	 rcx, QWORD PTR sfdat$[rsp]
  00277	e8 00 00 00 00	 call	 wavDoWrite
  0027c	85 c0		 test	 eax, eax
  0027e	74 0a		 je	 SHORT $LN12@wavWriteHe
$LN13@wavWriteHe:

; 923  : 		return PSF_E_CANT_WRITE;

  00280	b8 fd ff ff ff	 mov	 eax, -3
  00285	e9 30 03 00 00	 jmp	 $LN1@wavWriteHe
$LN12@wavWriteHe:

; 924  :         if(fgetpos(sfdat->file,&bytepos))

  0028a	48 8d 54 24 38	 lea	 rdx, QWORD PTR bytepos$[rsp]
  0028f	48 8b 44 24 60	 mov	 rax, QWORD PTR sfdat$[rsp]
  00294	48 8b 08	 mov	 rcx, QWORD PTR [rax]
  00297	e8 00 00 00 00	 call	 fgetpos
  0029c	85 c0		 test	 eax, eax
  0029e	74 0a		 je	 SHORT $LN14@wavWriteHe

; 925  : 	    return PSF_E_CANT_SEEK;

  002a0	b8 f5 ff ff ff	 mov	 eax, -11
  002a5	e9 10 03 00 00	 jmp	 $LN1@wavWriteHe
$LN14@wavWriteHe:

; 926  : 	sfdat->fmtoffset = bytepos;

  002aa	48 8b 44 24 60	 mov	 rax, QWORD PTR sfdat$[rsp]
  002af	48 8b 4c 24 38	 mov	 rcx, QWORD PTR bytepos$[rsp]
  002b4	48 89 48 40	 mov	 QWORD PTR [rax+64], rcx

; 927  : 	
; 928  : 	if(wavDoWrite(sfdat,(char *)pfmt,sizeof(WAVEFORMAT)))

  002b8	41 b8 10 00 00
	00		 mov	 r8d, 16
  002be	48 8b 54 24 40	 mov	 rdx, QWORD PTR pfmt$[rsp]
  002c3	48 8b 4c 24 60	 mov	 rcx, QWORD PTR sfdat$[rsp]
  002c8	e8 00 00 00 00	 call	 wavDoWrite
  002cd	85 c0		 test	 eax, eax
  002cf	74 0a		 je	 SHORT $LN15@wavWriteHe

; 929  : 		return PSF_E_CANT_WRITE;

  002d1	b8 fd ff ff ff	 mov	 eax, -3
  002d6	e9 df 02 00 00	 jmp	 $LN1@wavWriteHe
$LN15@wavWriteHe:

; 930  : 	/*add cbSize if floatsams */
; 931  : 	if(sfdat->samptype==PSF_SAMP_IEEE_FLOAT)

  002db	48 8b 44 24 60	 mov	 rax, QWORD PTR sfdat$[rsp]
  002e0	83 78 30 05	 cmp	 DWORD PTR [rax+48], 5
  002e4	75 23		 jne	 SHORT $LN16@wavWriteHe

; 932  : 		if(wavDoWrite(sfdat,(char *)&cbSize,sizeof(WORD)))

  002e6	41 b8 02 00 00
	00		 mov	 r8d, 2
  002ec	48 8d 54 24 20	 lea	 rdx, QWORD PTR cbSize$[rsp]
  002f1	48 8b 4c 24 60	 mov	 rcx, QWORD PTR sfdat$[rsp]
  002f6	e8 00 00 00 00	 call	 wavDoWrite
  002fb	85 c0		 test	 eax, eax
  002fd	74 0a		 je	 SHORT $LN17@wavWriteHe

; 933  : 			return PSF_E_CANT_WRITE;

  002ff	b8 fd ff ff ff	 mov	 eax, -3
  00304	e9 b1 02 00 00	 jmp	 $LN1@wavWriteHe
$LN17@wavWriteHe:
$LN16@wavWriteHe:

; 934  :         /* reswap it all */
; 935  :         if(!sfdat->is_little_endian){

  00309	48 8b 44 24 60	 mov	 rax, QWORD PTR sfdat$[rsp]
  0030e	83 78 2c 00	 cmp	 DWORD PTR [rax+44], 0
  00312	75 0a		 jne	 SHORT $LN18@wavWriteHe

; 936  :             fmtSwapBytes(sfdat);

  00314	48 8b 4c 24 60	 mov	 rcx, QWORD PTR sfdat$[rsp]
  00319	e8 00 00 00 00	 call	 fmtSwapBytes
$LN18@wavWriteHe:

; 937  :         }
; 938  :         
; 939  : 	if(sfdat->pPeaks){

  0031e	48 8b 44 24 60	 mov	 rax, QWORD PTR sfdat$[rsp]
  00323	48 83 b8 80 00
	00 00 00	 cmp	 QWORD PTR [rax+128], 0
  0032b	0f 84 cb 01 00
	00		 je	 $LN19@wavWriteHe

; 940  : 		DWORD version = 1, now = 0;

  00331	c7 44 24 2c 01
	00 00 00	 mov	 DWORD PTR version$1[rsp], 1
  00339	c7 44 24 30 00
	00 00 00	 mov	 DWORD PTR now$2[rsp], 0

; 941  : 		peaks = sfdat->pPeaks;

  00341	48 8b 44 24 60	 mov	 rax, QWORD PTR sfdat$[rsp]
  00346	48 8b 80 80 00
	00 00		 mov	 rax, QWORD PTR [rax+128]
  0034d	48 89 44 24 48	 mov	 QWORD PTR peaks$[rsp], rax

; 942  : 		
; 943  : 		tag = TAG('P','E','A','K');		

  00352	c7 44 24 24 4b
	41 45 50	 mov	 DWORD PTR tag$[rsp], 1346715979 ; 5045414bH

; 944  : 		size = 2 * sizeof(DWORD) + sizeof(PSF_CHPEAK) * pfmt->nChannels;

  0035a	48 8b 44 24 40	 mov	 rax, QWORD PTR pfmt$[rsp]
  0035f	0f b7 40 02	 movzx	 eax, WORD PTR [rax+2]
  00363	48 8d 04 c5 08
	00 00 00	 lea	 rax, QWORD PTR [rax*8+8]
  0036b	89 44 24 28	 mov	 DWORD PTR size$[rsp], eax

; 945  : 		if(!sfdat->is_little_endian){

  0036f	48 8b 44 24 60	 mov	 rax, QWORD PTR sfdat$[rsp]
  00374	83 78 2c 00	 cmp	 DWORD PTR [rax+44], 0
  00378	75 7c		 jne	 SHORT $LN20@wavWriteHe

; 946  : 			size = REVDWBYTES(size);

  0037a	8b 44 24 28	 mov	 eax, DWORD PTR size$[rsp]
  0037e	25 ff 00 00 00	 and	 eax, 255		; 000000ffH
  00383	c1 e0 18	 shl	 eax, 24
  00386	8b 4c 24 28	 mov	 ecx, DWORD PTR size$[rsp]
  0038a	81 e1 00 ff 00
	00		 and	 ecx, 65280		; 0000ff00H
  00390	c1 e1 08	 shl	 ecx, 8
  00393	0b c1		 or	 eax, ecx
  00395	8b 4c 24 28	 mov	 ecx, DWORD PTR size$[rsp]
  00399	81 e1 00 00 ff
	00		 and	 ecx, 16711680		; 00ff0000H
  0039f	c1 e9 08	 shr	 ecx, 8
  003a2	0b c1		 or	 eax, ecx
  003a4	8b 4c 24 28	 mov	 ecx, DWORD PTR size$[rsp]
  003a8	c1 e9 18	 shr	 ecx, 24
  003ab	81 e1 ff 00 00
	00		 and	 ecx, 255		; 000000ffH
  003b1	0b c1		 or	 eax, ecx
  003b3	89 44 24 28	 mov	 DWORD PTR size$[rsp], eax

; 947  : 			version  = REVDWBYTES(version);

  003b7	8b 44 24 2c	 mov	 eax, DWORD PTR version$1[rsp]
  003bb	25 ff 00 00 00	 and	 eax, 255		; 000000ffH
  003c0	c1 e0 18	 shl	 eax, 24
  003c3	8b 4c 24 2c	 mov	 ecx, DWORD PTR version$1[rsp]
  003c7	81 e1 00 ff 00
	00		 and	 ecx, 65280		; 0000ff00H
  003cd	c1 e1 08	 shl	 ecx, 8
  003d0	0b c1		 or	 eax, ecx
  003d2	8b 4c 24 2c	 mov	 ecx, DWORD PTR version$1[rsp]
  003d6	81 e1 00 00 ff
	00		 and	 ecx, 16711680		; 00ff0000H
  003dc	c1 e9 08	 shr	 ecx, 8
  003df	0b c1		 or	 eax, ecx
  003e1	8b 4c 24 2c	 mov	 ecx, DWORD PTR version$1[rsp]
  003e5	c1 e9 18	 shr	 ecx, 24
  003e8	81 e1 ff 00 00
	00		 and	 ecx, 255		; 000000ffH
  003ee	0b c1		 or	 eax, ecx
  003f0	89 44 24 2c	 mov	 DWORD PTR version$1[rsp], eax

; 948  : 		}

  003f4	eb 3d		 jmp	 SHORT $LN21@wavWriteHe
$LN20@wavWriteHe:

; 949  : 		else
; 950  : 			tag = REVDWBYTES(tag);

  003f6	8b 44 24 24	 mov	 eax, DWORD PTR tag$[rsp]
  003fa	25 ff 00 00 00	 and	 eax, 255		; 000000ffH
  003ff	c1 e0 18	 shl	 eax, 24
  00402	8b 4c 24 24	 mov	 ecx, DWORD PTR tag$[rsp]
  00406	81 e1 00 ff 00
	00		 and	 ecx, 65280		; 0000ff00H
  0040c	c1 e1 08	 shl	 ecx, 8
  0040f	0b c1		 or	 eax, ecx
  00411	8b 4c 24 24	 mov	 ecx, DWORD PTR tag$[rsp]
  00415	81 e1 00 00 ff
	00		 and	 ecx, 16711680		; 00ff0000H
  0041b	c1 e9 08	 shr	 ecx, 8
  0041e	0b c1		 or	 eax, ecx
  00420	8b 4c 24 24	 mov	 ecx, DWORD PTR tag$[rsp]
  00424	c1 e9 18	 shr	 ecx, 24
  00427	81 e1 ff 00 00
	00		 and	 ecx, 255		; 000000ffH
  0042d	0b c1		 or	 eax, ecx
  0042f	89 44 24 24	 mov	 DWORD PTR tag$[rsp], eax
$LN21@wavWriteHe:

; 951  : 
; 952  : 		if(wavDoWrite(sfdat,(char *)&tag,sizeof(DWORD))
; 953  : 			|| wavDoWrite(sfdat,(char *)&size,sizeof(DWORD))
; 954  : 			|| wavDoWrite(sfdat,(char *)&version,sizeof(DWORD)))

  00433	41 b8 04 00 00
	00		 mov	 r8d, 4
  00439	48 8d 54 24 24	 lea	 rdx, QWORD PTR tag$[rsp]
  0043e	48 8b 4c 24 60	 mov	 rcx, QWORD PTR sfdat$[rsp]
  00443	e8 00 00 00 00	 call	 wavDoWrite
  00448	85 c0		 test	 eax, eax
  0044a	75 32		 jne	 SHORT $LN23@wavWriteHe
  0044c	41 b8 04 00 00
	00		 mov	 r8d, 4
  00452	48 8d 54 24 28	 lea	 rdx, QWORD PTR size$[rsp]
  00457	48 8b 4c 24 60	 mov	 rcx, QWORD PTR sfdat$[rsp]
  0045c	e8 00 00 00 00	 call	 wavDoWrite
  00461	85 c0		 test	 eax, eax
  00463	75 19		 jne	 SHORT $LN23@wavWriteHe
  00465	41 b8 04 00 00
	00		 mov	 r8d, 4
  0046b	48 8d 54 24 2c	 lea	 rdx, QWORD PTR version$1[rsp]
  00470	48 8b 4c 24 60	 mov	 rcx, QWORD PTR sfdat$[rsp]
  00475	e8 00 00 00 00	 call	 wavDoWrite
  0047a	85 c0		 test	 eax, eax
  0047c	74 0a		 je	 SHORT $LN22@wavWriteHe
$LN23@wavWriteHe:

; 955  : 			return PSF_E_CANT_WRITE;

  0047e	b8 fd ff ff ff	 mov	 eax, -3
  00483	e9 32 01 00 00	 jmp	 $LN1@wavWriteHe
$LN22@wavWriteHe:

; 956  : 		if(fgetpos(sfdat->file,&bytepos))

  00488	48 8d 54 24 38	 lea	 rdx, QWORD PTR bytepos$[rsp]
  0048d	48 8b 44 24 60	 mov	 rax, QWORD PTR sfdat$[rsp]
  00492	48 8b 08	 mov	 rcx, QWORD PTR [rax]
  00495	e8 00 00 00 00	 call	 fgetpos
  0049a	85 c0		 test	 eax, eax
  0049c	74 0a		 je	 SHORT $LN24@wavWriteHe

; 957  : 		    return PSF_E_CANT_SEEK;

  0049e	b8 f5 ff ff ff	 mov	 eax, -11
  004a3	e9 12 01 00 00	 jmp	 $LN1@wavWriteHe
$LN24@wavWriteHe:

; 958  : 		sfdat->peakoffset = bytepos;  /*we need to update time*/

  004a8	48 8b 44 24 60	 mov	 rax, QWORD PTR sfdat$[rsp]
  004ad	48 8b 4c 24 38	 mov	 rcx, QWORD PTR bytepos$[rsp]
  004b2	48 89 48 48	 mov	 QWORD PTR [rax+72], rcx

; 959  : 
; 960  : 		if(wavDoWrite(sfdat,(char *) &now,sizeof(DWORD))
; 961  : 			|| wavDoWrite(sfdat,(char *) peaks, sizeof(PSF_CHPEAK) * sfdat->fmt.Format.nChannels))

  004b6	41 b8 04 00 00
	00		 mov	 r8d, 4
  004bc	48 8d 54 24 30	 lea	 rdx, QWORD PTR now$2[rsp]
  004c1	48 8b 4c 24 60	 mov	 rcx, QWORD PTR sfdat$[rsp]
  004c6	e8 00 00 00 00	 call	 wavDoWrite
  004cb	85 c0		 test	 eax, eax
  004cd	75 23		 jne	 SHORT $LN26@wavWriteHe
  004cf	48 8b 44 24 60	 mov	 rax, QWORD PTR sfdat$[rsp]
  004d4	0f b7 40 52	 movzx	 eax, WORD PTR [rax+82]
  004d8	48 c1 e0 03	 shl	 rax, 3
  004dc	44 8b c0	 mov	 r8d, eax
  004df	48 8b 54 24 48	 mov	 rdx, QWORD PTR peaks$[rsp]
  004e4	48 8b 4c 24 60	 mov	 rcx, QWORD PTR sfdat$[rsp]
  004e9	e8 00 00 00 00	 call	 wavDoWrite
  004ee	85 c0		 test	 eax, eax
  004f0	74 0a		 je	 SHORT $LN25@wavWriteHe
$LN26@wavWriteHe:

; 962  : 			return PSF_E_CANT_WRITE;

  004f2	b8 fd ff ff ff	 mov	 eax, -3
  004f7	e9 be 00 00 00	 jmp	 $LN1@wavWriteHe
$LN25@wavWriteHe:
$LN19@wavWriteHe:

; 963  : 	}	
; 964  : 	tag = TAG('d','a','t','a');	

  004fc	c7 44 24 24 61
	74 61 64	 mov	 DWORD PTR tag$[rsp], 1684108385 ; 64617461H

; 965  : 	size = 0;	

  00504	c7 44 24 28 00
	00 00 00	 mov	 DWORD PTR size$[rsp], 0

; 966  : 	if(sfdat->is_little_endian)

  0050c	48 8b 44 24 60	 mov	 rax, QWORD PTR sfdat$[rsp]
  00511	83 78 2c 00	 cmp	 DWORD PTR [rax+44], 0
  00515	74 3d		 je	 SHORT $LN27@wavWriteHe

; 967  : 		tag = REVDWBYTES(tag);

  00517	8b 44 24 24	 mov	 eax, DWORD PTR tag$[rsp]
  0051b	25 ff 00 00 00	 and	 eax, 255		; 000000ffH
  00520	c1 e0 18	 shl	 eax, 24
  00523	8b 4c 24 24	 mov	 ecx, DWORD PTR tag$[rsp]
  00527	81 e1 00 ff 00
	00		 and	 ecx, 65280		; 0000ff00H
  0052d	c1 e1 08	 shl	 ecx, 8
  00530	0b c1		 or	 eax, ecx
  00532	8b 4c 24 24	 mov	 ecx, DWORD PTR tag$[rsp]
  00536	81 e1 00 00 ff
	00		 and	 ecx, 16711680		; 00ff0000H
  0053c	c1 e9 08	 shr	 ecx, 8
  0053f	0b c1		 or	 eax, ecx
  00541	8b 4c 24 24	 mov	 ecx, DWORD PTR tag$[rsp]
  00545	c1 e9 18	 shr	 ecx, 24
  00548	81 e1 ff 00 00
	00		 and	 ecx, 255		; 000000ffH
  0054e	0b c1		 or	 eax, ecx
  00550	89 44 24 24	 mov	 DWORD PTR tag$[rsp], eax
$LN27@wavWriteHe:

; 968  : 	if(wavDoWrite(sfdat,(char *)&tag,sizeof(DWORD))
; 969  : 		|| wavDoWrite(sfdat,(char *)&size,sizeof(DWORD)))		

  00554	41 b8 04 00 00
	00		 mov	 r8d, 4
  0055a	48 8d 54 24 24	 lea	 rdx, QWORD PTR tag$[rsp]
  0055f	48 8b 4c 24 60	 mov	 rcx, QWORD PTR sfdat$[rsp]
  00564	e8 00 00 00 00	 call	 wavDoWrite
  00569	85 c0		 test	 eax, eax
  0056b	75 19		 jne	 SHORT $LN29@wavWriteHe
  0056d	41 b8 04 00 00
	00		 mov	 r8d, 4
  00573	48 8d 54 24 28	 lea	 rdx, QWORD PTR size$[rsp]
  00578	48 8b 4c 24 60	 mov	 rcx, QWORD PTR sfdat$[rsp]
  0057d	e8 00 00 00 00	 call	 wavDoWrite
  00582	85 c0		 test	 eax, eax
  00584	74 07		 je	 SHORT $LN28@wavWriteHe
$LN29@wavWriteHe:

; 970  : 		return PSF_E_CANT_WRITE;

  00586	b8 fd ff ff ff	 mov	 eax, -3
  0058b	eb 2d		 jmp	 SHORT $LN1@wavWriteHe
$LN28@wavWriteHe:

; 971  : 	if(fgetpos(sfdat->file,&bytepos))

  0058d	48 8d 54 24 38	 lea	 rdx, QWORD PTR bytepos$[rsp]
  00592	48 8b 44 24 60	 mov	 rax, QWORD PTR sfdat$[rsp]
  00597	48 8b 08	 mov	 rcx, QWORD PTR [rax]
  0059a	e8 00 00 00 00	 call	 fgetpos
  0059f	85 c0		 test	 eax, eax
  005a1	74 07		 je	 SHORT $LN30@wavWriteHe

; 972  : 	    return PSF_E_CANT_SEEK;

  005a3	b8 f5 ff ff ff	 mov	 eax, -11
  005a8	eb 10		 jmp	 SHORT $LN1@wavWriteHe
$LN30@wavWriteHe:

; 973  : 	sfdat->dataoffset = bytepos;	

  005aa	48 8b 44 24 60	 mov	 rax, QWORD PTR sfdat$[rsp]
  005af	48 8b 4c 24 38	 mov	 rcx, QWORD PTR bytepos$[rsp]
  005b4	48 89 48 38	 mov	 QWORD PTR [rax+56], rcx

; 974  : 	return PSF_E_NOERROR;

  005b8	33 c0		 xor	 eax, eax
$LN1@wavWriteHe:

; 975  : }

  005ba	48 83 c4 58	 add	 rsp, 88			; 00000058H
  005be	c3		 ret	 0
wavWriteHeader ENDP
_TEXT	ENDS
; Function compile flags: /Odtp
; File k:\audio\editing\current\programming\the_audio_programming_book\test_code\misc\psfmaster\portsf\portsf.c
_TEXT	SEGMENT
got$ = 32
sfdat$ = 64
buf$ = 72
nBytes$ = 80
wavDoRead PROC

; 850  : {

  00000	44 89 44 24 18	 mov	 DWORD PTR [rsp+24], r8d
  00005	48 89 54 24 10	 mov	 QWORD PTR [rsp+16], rdx
  0000a	48 89 4c 24 08	 mov	 QWORD PTR [rsp+8], rcx
  0000f	48 83 ec 38	 sub	 rsp, 56			; 00000038H

; 851  : 	
; 852  : 	DWORD got = 0;

  00013	c7 44 24 20 00
	00 00 00	 mov	 DWORD PTR got$[rsp], 0

; 853  : 	if(sfdat==NULL || buf==NULL)

  0001b	48 83 7c 24 40
	00		 cmp	 QWORD PTR sfdat$[rsp], 0
  00021	74 08		 je	 SHORT $LN3@wavDoRead
  00023	48 83 7c 24 48
	00		 cmp	 QWORD PTR buf$[rsp], 0
  00029	75 07		 jne	 SHORT $LN2@wavDoRead
$LN3@wavDoRead:

; 854  : 		return PSF_E_BADARG;

  0002b	b8 f6 ff ff ff	 mov	 eax, -10
  00030	eb 56		 jmp	 SHORT $LN1@wavDoRead
$LN2@wavDoRead:

; 855  : 
; 856  : 	if(sfdat->file==NULL)

  00032	48 8b 44 24 40	 mov	 rax, QWORD PTR sfdat$[rsp]
  00037	48 83 38 00	 cmp	 QWORD PTR [rax], 0
  0003b	75 07		 jne	 SHORT $LN4@wavDoRead

; 857  : 		return PSF_E_CANT_READ;

  0003d	b8 fc ff ff ff	 mov	 eax, -4
  00042	eb 44		 jmp	 SHORT $LN1@wavDoRead
$LN4@wavDoRead:

; 858  : 
; 859  : 	if((got = fread(buf,sizeof(char),nBytes,sfdat->file)) != nBytes) {

  00044	8b 44 24 50	 mov	 eax, DWORD PTR nBytes$[rsp]
  00048	48 8b 4c 24 40	 mov	 rcx, QWORD PTR sfdat$[rsp]
  0004d	4c 8b 09	 mov	 r9, QWORD PTR [rcx]
  00050	44 8b c0	 mov	 r8d, eax
  00053	ba 01 00 00 00	 mov	 edx, 1
  00058	48 8b 4c 24 48	 mov	 rcx, QWORD PTR buf$[rsp]
  0005d	e8 00 00 00 00	 call	 fread
  00062	89 44 24 20	 mov	 DWORD PTR got$[rsp], eax
  00066	8b 44 24 50	 mov	 eax, DWORD PTR nBytes$[rsp]
  0006a	39 44 24 20	 cmp	 DWORD PTR got$[rsp], eax
  0006e	74 07		 je	 SHORT $LN5@wavDoRead

; 860  : 		DBGFPRINTF((stderr, "wavDoRead: wanted %d got %d.\n",
