; Listing generated by Microsoft (R) Optimizing Compiler Version 19.11.25507.1 

include listing.inc

INCLUDELIB LIBCMT
INCLUDELIB OLDNAMES

_DATA	SEGMENT
$SG5178	DB	0aH, ' Please enter a number!: ', 00H
	ORG $+1
$SG5179	DB	'%d', 00H
	ORG $+1
$SG5180	DB	0aH, ' Please enter a second number?: ', 00H
	ORG $+2
$SG5181	DB	'%d', 00H
	ORG $+1
$SG5182	DB	'%d + %d = %d ', 0aH, 00H
_DATA	ENDS
PUBLIC	__local_stdio_printf_options
PUBLIC	__local_stdio_scanf_options
PUBLIC	_vfprintf_l
PUBLIC	printf
PUBLIC	_vfscanf_l
PUBLIC	scanf
PUBLIC	main
EXTRN	__acrt_iob_func:PROC
EXTRN	__stdio_common_vfprintf:PROC
EXTRN	__stdio_common_vfscanf:PROC
_DATA	SEGMENT
COMM	?_OptionsStorage@?1??__local_stdio_printf_options@@9@9:QWORD							; `__local_stdio_printf_options'::`2'::_OptionsStorage
COMM	?_OptionsStorage@?1??__local_stdio_scanf_options@@9@9:QWORD							; `__local_stdio_scanf_options'::`2'::_OptionsStorage
_DATA	ENDS
;	COMDAT pdata
pdata	SEGMENT
$pdata$_vfprintf_l DD imagerel $LN3
	DD	imagerel $LN3+67
	DD	imagerel $unwind$_vfprintf_l
pdata	ENDS
;	COMDAT pdata
pdata	SEGMENT
$pdata$printf DD imagerel $LN3
	DD	imagerel $LN3+87
	DD	imagerel $unwind$printf
pdata	ENDS
;	COMDAT pdata
pdata	SEGMENT
$pdata$_vfscanf_l DD imagerel $LN3
	DD	imagerel $LN3+67
	DD	imagerel $unwind$_vfscanf_l
pdata	ENDS
;	COMDAT pdata
pdata	SEGMENT
$pdata$scanf DD	imagerel $LN3
	DD	imagerel $LN3+84
	DD	imagerel $unwind$scanf
pdata	ENDS
pdata	SEGMENT
$pdata$main DD	imagerel $LN3
	DD	imagerel $LN3+111
	DD	imagerel $unwind$main
pdata	ENDS
xdata	SEGMENT
$unwind$main DD	010401H
	DD	06204H
xdata	ENDS
;	COMDAT xdata
xdata	SEGMENT
$unwind$scanf DD 011801H
	DD	06218H
xdata	ENDS
;	COMDAT xdata
xdata	SEGMENT
$unwind$_vfscanf_l DD 011801H
	DD	06218H
xdata	ENDS
;	COMDAT xdata
xdata	SEGMENT
$unwind$printf DD 011801H
	DD	06218H
xdata	ENDS
;	COMDAT xdata
xdata	SEGMENT
$unwind$_vfprintf_l DD 011801H
	DD	06218H
xdata	ENDS
; Function compile flags: /Odtp
; File k:\audio\editing\current\programming\the_audio_programming_book\test_code\chapter_0\1_arthimatic_test\code\1_arthimatic_test_src.c
_TEXT	SEGMENT
b$ = 32
a$ = 36
c$ = 40
main	PROC

; 4    : {

$LN3:
  00000	48 83 ec 38	 sub	 rsp, 56			; 00000038H

; 5    : 	int a,b,c;
; 6    : 	
; 7    : 
; 8    : 	printf("\n Please enter a number!: ");

  00004	48 8d 0d 00 00
	00 00		 lea	 rcx, OFFSET FLAT:$SG5178
  0000b	e8 00 00 00 00	 call	 printf

; 9    : 	scanf("%d",&a);

  00010	48 8d 54 24 24	 lea	 rdx, QWORD PTR a$[rsp]
  00015	48 8d 0d 00 00
	00 00		 lea	 rcx, OFFSET FLAT:$SG5179
  0001c	e8 00 00 00 00	 call	 scanf

; 10   : 	printf("\n Please enter a second number?: ");

  00021	48 8d 0d 00 00
	00 00		 lea	 rcx, OFFSET FLAT:$SG5180
  00028	e8 00 00 00 00	 call	 printf

; 11   : 	scanf("%d",&b);

  0002d	48 8d 54 24 20	 lea	 rdx, QWORD PTR b$[rsp]
  00032	48 8d 0d 00 00
	00 00		 lea	 rcx, OFFSET FLAT:$SG5181
  00039	e8 00 00 00 00	 call	 scanf

; 12   : 	c=a+b;

  0003e	8b 44 24 20	 mov	 eax, DWORD PTR b$[rsp]
  00042	8b 4c 24 24	 mov	 ecx, DWORD PTR a$[rsp]
  00046	03 c8		 add	 ecx, eax
  00048	8b c1		 mov	 eax, ecx
  0004a	89 44 24 28	 mov	 DWORD PTR c$[rsp], eax

; 13   : 	printf("%d + %d = %d \n",a,b,c);

  0004e	44 8b 4c 24 28	 mov	 r9d, DWORD PTR c$[rsp]
  00053	44 8b 44 24 20	 mov	 r8d, DWORD PTR b$[rsp]
  00058	8b 54 24 24	 mov	 edx, DWORD PTR a$[rsp]
  0005c	48 8d 0d 00 00
	00 00		 lea	 rcx, OFFSET FLAT:$SG5182
  00063	e8 00 00 00 00	 call	 printf

; 14   : 	return 0;

  00068	33 c0		 xor	 eax, eax

; 15   : }

  0006a	48 83 c4 38	 add	 rsp, 56			; 00000038H
  0006e	c3		 ret	 0
main	ENDP
_TEXT	ENDS
; Function compile flags: /Odtp
; File c:\program files (x86)\windows kits\10\include\10.0.15063.0\ucrt\stdio.h
;	COMDAT scanf
_TEXT	SEGMENT
_Result$ = 32
_ArgList$ = 40
_Format$ = 64
scanf	PROC						; COMDAT

; 1278 :     {

$LN3:
  00000	48 89 4c 24 08	 mov	 QWORD PTR [rsp+8], rcx
  00005	48 89 54 24 10	 mov	 QWORD PTR [rsp+16], rdx
  0000a	4c 89 44 24 18	 mov	 QWORD PTR [rsp+24], r8
  0000f	4c 89 4c 24 20	 mov	 QWORD PTR [rsp+32], r9
  00014	48 83 ec 38	 sub	 rsp, 56			; 00000038H

; 1279 :         int _Result;
; 1280 :         va_list _ArgList;
; 1281 :         __crt_va_start(_ArgList, _Format);

  00018	48 8d 44 24 48	 lea	 rax, QWORD PTR _Format$[rsp+8]
  0001d	48 89 44 24 28	 mov	 QWORD PTR _ArgList$[rsp], rax

; 1282 :         _Result = _vfscanf_l(stdin, _Format, NULL, _ArgList);

  00022	33 c9		 xor	 ecx, ecx
  00024	e8 00 00 00 00	 call	 __acrt_iob_func
  00029	4c 8b 4c 24 28	 mov	 r9, QWORD PTR _ArgList$[rsp]
  0002e	45 33 c0	 xor	 r8d, r8d
  00031	48 8b 54 24 40	 mov	 rdx, QWORD PTR _Format$[rsp]
  00036	48 8b c8	 mov	 rcx, rax
  00039	e8 00 00 00 00	 call	 _vfscanf_l
  0003e	89 44 24 20	 mov	 DWORD PTR _Result$[rsp], eax

; 1283 :         __crt_va_end(_ArgList);

  00042	48 c7 44 24 28
	00 00 00 00	 mov	 QWORD PTR _ArgList$[rsp], 0

; 1284 :         return _Result;

  0004b	8b 44 24 20	 mov	 eax, DWORD PTR _Result$[rsp]

; 1285 :     }

  0004f	48 83 c4 38	 add	 rsp, 56			; 00000038H
  00053	c3		 ret	 0
scanf	ENDP
_TEXT	ENDS
; Function compile flags: /Odtp
; File c:\program files (x86)\windows kits\10\include\10.0.15063.0\ucrt\stdio.h
;	COMDAT _vfscanf_l
_TEXT	SEGMENT
_Stream$ = 64
_Format$ = 72
_Locale$ = 80
_ArgList$ = 88
_vfscanf_l PROC						; COMDAT

; 1060 :     {

$LN3:
  00000	4c 89 4c 24 20	 mov	 QWORD PTR [rsp+32], r9
  00005	4c 89 44 24 18	 mov	 QWORD PTR [rsp+24], r8
  0000a	48 89 54 24 10	 mov	 QWORD PTR [rsp+16], rdx
  0000f	48 89 4c 24 08	 mov	 QWORD PTR [rsp+8], rcx
  00014	48 83 ec 38	 sub	 rsp, 56			; 00000038H

; 1061 :         return __stdio_common_vfscanf(

  00018	e8 00 00 00 00	 call	 __local_stdio_scanf_options
  0001d	48 8b 4c 24 58	 mov	 rcx, QWORD PTR _ArgList$[rsp]
  00022	48 89 4c 24 20	 mov	 QWORD PTR [rsp+32], rcx
  00027	4c 8b 4c 24 50	 mov	 r9, QWORD PTR _Locale$[rsp]
  0002c	4c 8b 44 24 48	 mov	 r8, QWORD PTR _Format$[rsp]
  00031	48 8b 54 24 40	 mov	 rdx, QWORD PTR _Stream$[rsp]
  00036	48 8b 08	 mov	 rcx, QWORD PTR [rax]
  00039	e8 00 00 00 00	 call	 __stdio_common_vfscanf

; 1062 :             _CRT_INTERNAL_LOCAL_SCANF_OPTIONS,
; 1063 :             _Stream, _Format, _Locale, _ArgList);
; 1064 :     }

  0003e	48 83 c4 38	 add	 rsp, 56			; 00000038H
  00042	c3		 ret	 0
_vfscanf_l ENDP
_TEXT	ENDS
; Function compile flags: /Odtp
; File c:\program files (x86)\windows kits\10\include\10.0.15063.0\ucrt\stdio.h
;	COMDAT printf
_TEXT	SEGMENT
_Result$ = 32
_ArgList$ = 40
_Format$ = 64
printf	PROC						; COMDAT

; 952  :     {

$LN3:
  00000	48 89 4c 24 08	 mov	 QWORD PTR [rsp+8], rcx
  00005	48 89 54 24 10	 mov	 QWORD PTR [rsp+16], rdx
  0000a	4c 89 44 24 18	 mov	 QWORD PTR [rsp+24], r8
  0000f	4c 89 4c 24 20	 mov	 QWORD PTR [rsp+32], r9
  00014	48 83 ec 38	 sub	 rsp, 56			; 00000038H

; 953  :         int _Result;
; 954  :         va_list _ArgList;
; 955  :         __crt_va_start(_ArgList, _Format);

  00018	48 8d 44 24 48	 lea	 rax, QWORD PTR _Format$[rsp+8]
  0001d	48 89 44 24 28	 mov	 QWORD PTR _ArgList$[rsp], rax

; 956  :         _Result = _vfprintf_l(stdout, _Format, NULL, _ArgList);

  00022	b9 01 00 00 00	 mov	 ecx, 1
  00027	e8 00 00 00 00	 call	 __acrt_iob_func
  0002c	4c 8b 4c 24 28	 mov	 r9, QWORD PTR _ArgList$[rsp]
  00031	45 33 c0	 xor	 r8d, r8d
  00034	48 8b 54 24 40	 mov	 rdx, QWORD PTR _Format$[rsp]
  00039	48 8b c8	 mov	 rcx, rax
  0003c	e8 00 00 00 00	 call	 _vfprintf_l
  00041	89 44 24 20	 mov	 DWORD PTR _Result$[rsp], eax

; 957  :         __crt_va_end(_ArgList);

  00045	48 c7 44 24 28
	00 00 00 00	 mov	 QWORD PTR _ArgList$[rsp], 0

; 958  :         return _Result;

  0004e	8b 44 24 20	 mov	 eax, DWORD PTR _Result$[rsp]

; 959  :     }

  00052	48 83 c4 38	 add	 rsp, 56			; 00000038H
  00056	c3		 ret	 0
printf	ENDP
_TEXT	ENDS
; Function compile flags: /Odtp
; File c:\program files (x86)\windows kits\10\include\10.0.15063.0\ucrt\stdio.h
;	COMDAT _vfprintf_l
_TEXT	SEGMENT
_Stream$ = 64
_Format$ = 72
_Locale$ = 80
_ArgList$ = 88
_vfprintf_l PROC					; COMDAT

; 640  :     {

$LN3:
  00000	4c 89 4c 24 20	 mov	 QWORD PTR [rsp+32], r9
  00005	4c 89 44 24 18	 mov	 QWORD PTR [rsp+24], r8
  0000a	48 89 54 24 10	 mov	 QWORD PTR [rsp+16], rdx
  0000f	48 89 4c 24 08	 mov	 QWORD PTR [rsp+8], rcx
  00014	48 83 ec 38	 sub	 rsp, 56			; 00000038H

; 641  :         return __stdio_common_vfprintf(_CRT_INTERNAL_LOCAL_PRINTF_OPTIONS, _Stream, _Format, _Locale, _ArgList);

  00018	e8 00 00 00 00	 call	 __local_stdio_printf_options
  0001d	48 8b 4c 24 58	 mov	 rcx, QWORD PTR _ArgList$[rsp]
  00022	48 89 4c 24 20	 mov	 QWORD PTR [rsp+32], rcx
  00027	4c 8b 4c 24 50	 mov	 r9, QWORD PTR _Locale$[rsp]
  0002c	4c 8b 44 24 48	 mov	 r8, QWORD PTR _Format$[rsp]
  00031	48 8b 54 24 40	 mov	 rdx, QWORD PTR _Stream$[rsp]
  00036	48 8b 08	 mov	 rcx, QWORD PTR [rax]
  00039	e8 00 00 00 00	 call	 __stdio_common_vfprintf

; 642  :     }

  0003e	48 83 c4 38	 add	 rsp, 56			; 00000038H
  00042	c3		 ret	 0
_vfprintf_l ENDP
_TEXT	ENDS
; Function compile flags: /Odtp
; File c:\program files (x86)\windows kits\10\include\10.0.15063.0\ucrt\corecrt_stdio_config.h
;	COMDAT __local_stdio_scanf_options
_TEXT	SEGMENT
__local_stdio_scanf_options PROC			; COMDAT

; 95   :         static unsigned __int64 _OptionsStorage;
; 96   :         return &_OptionsStorage;

  00000	48 8d 05 00 00
	00 00		 lea	 rax, OFFSET FLAT:?_OptionsStorage@?1??__local_stdio_scanf_options@@9@9 ; `__local_stdio_scanf_options'::`2'::_OptionsStorage

; 97   :     }

  00007	c3		 ret	 0
__local_stdio_scanf_options ENDP
_TEXT	ENDS
; Function compile flags: /Odtp
; File c:\program files (x86)\windows kits\10\include\10.0.15063.0\ucrt\corecrt_stdio_config.h
;	COMDAT __local_stdio_printf_options
_TEXT	SEGMENT
__local_stdio_printf_options PROC			; COMDAT

; 86   :         static unsigned __int64 _OptionsStorage;
; 87   :         return &_OptionsStorage;

  00000	48 8d 05 00 00
	00 00		 lea	 rax, OFFSET FLAT:?_OptionsStorage@?1??__local_stdio_printf_options@@9@9 ; `__local_stdio_printf_options'::`2'::_OptionsStorage

; 88   :     }

  00007	c3		 ret	 0
__local_stdio_printf_options ENDP
_TEXT	ENDS
END
